(dp0
S'SingleGaze'
p1
(lp2
((lp3
S'100'
p4
aI0
aI1
aI178
aI327
aS'SingleGaze'
p5
a(lp6
S'single'
p7
ag7
ag7
ag7
ag7
ag7
ag7
ag7
ag7
ag7
ag7
ag7
ag7
ag7
ag7
ag7
ag7
ag7
ag7
ag7
ag7
ag7
ag7
ag7
ag7
ag7
ag7
ag7
ag7
ag7
atp8
a((lp9
g4
aI0
aI2
aI178
aI327
ag5
a(lp10
g7
ag7
ag7
ag7
ag7
ag7
ag7
ag7
ag7
ag7
ag7
ag7
ag7
ag7
ag7
ag7
ag7
ag7
ag7
ag7
ag7
ag7
ag7
ag7
ag7
ag7
ag7
ag7
ag7
ag7
atp11
a((lp12
g4
aI1
aI2
aI178
aI327
ag5
a(lp13
g7
ag7
ag7
ag7
ag7
ag7
ag7
ag7
ag7
ag7
ag7
ag7
ag7
ag7
ag7
ag7
ag7
ag7
ag7
ag7
ag7
ag7
ag7
ag7
ag7
ag7
ag7
ag7
ag7
ag7
atp14
a((lp15
S'104'
p16
aI0
aI1
aI220
aI224
ag5
a(lp17
g7
atp18
a((lp19
g16
aI0
aI2
aI220
aI224
ag5
a(lp20
g7
atp21
a((lp22
g16
aI1
aI2
aI220
aI224
ag5
a(lp23
g7
atp24
a((lp25
S'105'
p26
aI0
aI1
aI39
aI68
ag5
a(lp27
g7
ag7
ag7
ag7
ag7
ag7
atp28
a((lp29
S'107'
p30
aI0
aI1
aI0
aI24
ag5
a(lp31
g7
ag7
ag7
ag7
ag7
atp32
a((lp33
S'108'
p34
aI0
aI1
aI169
aI208
ag5
a(lp35
g7
ag7
ag7
ag7
ag7
ag7
ag7
ag7
atp36
a((lp37
g34
aI0
aI1
aI212
aI226
ag5
a(lp38
g7
ag7
ag7
atp39
a((lp40
S'110'
p41
aI0
aI1
aI7
aI16
ag5
a(lp42
g7
ag7
atp43
a((lp44
g41
aI0
aI1
aI26
aI185
ag5
a(lp45
g7
ag7
ag7
ag7
ag7
ag7
ag7
ag7
ag7
ag7
ag7
ag7
ag7
ag7
ag7
ag7
ag7
ag7
ag7
ag7
ag7
ag7
ag7
ag7
ag7
ag7
ag7
ag7
ag7
ag7
ag7
ag7
atp46
a((lp47
S'111'
p48
aI0
aI1
aI0
aI89
ag5
a(lp49
g7
ag7
ag7
ag7
ag7
ag7
ag7
ag7
ag7
ag7
ag7
ag7
ag7
ag7
ag7
ag7
ag7
ag7
atp50
a((lp51
g48
aI0
aI1
aI108
aI202
ag5
a(lp52
g7
ag7
ag7
ag7
ag7
ag7
ag7
ag7
ag7
ag7
ag7
ag7
ag7
ag7
ag7
ag7
ag7
ag7
ag7
atp53
a((lp54
g48
aI0
aI1
aI383
aI402
ag5
a(lp55
g7
ag7
ag7
ag7
atp56
a((lp57
S'113'
p58
aI0
aI1
aI0
aI104
ag5
a(lp59
g7
ag7
ag7
ag7
ag7
ag7
ag7
ag7
ag7
ag7
ag7
ag7
ag7
ag7
ag7
ag7
ag7
ag7
ag7
ag7
ag7
atp60
a((lp61
g58
aI0
aI2
aI0
aI104
ag5
a(lp62
g7
ag7
ag7
ag7
ag7
ag7
ag7
ag7
ag7
ag7
ag7
ag7
ag7
ag7
ag7
ag7
ag7
ag7
ag7
ag7
ag7
atp63
a((lp64
g58
aI1
aI2
aI0
aI104
ag5
a(lp65
g7
ag7
ag7
ag7
ag7
ag7
ag7
ag7
ag7
ag7
ag7
ag7
ag7
ag7
ag7
ag7
ag7
ag7
ag7
ag7
ag7
atp66
a((lp67
g58
aI0
aI1
aI196
aI255
ag5
a(lp68
g7
aS'NA'
p69
ag69
ag7
ag7
ag7
ag7
ag7
ag7
ag7
ag7
ag7
atp70
a((lp71
g58
aI0
aI2
aI196
aI255
ag5
a(lp72
g7
ag69
ag69
ag7
ag7
ag7
ag7
ag7
ag7
ag7
ag7
ag7
atp73
a((lp74
g58
aI1
aI2
aI196
aI255
ag5
a(lp75
g7
ag69
ag69
ag7
ag7
ag7
ag7
ag7
ag7
ag7
ag7
ag7
atp76
a((lp77
S'115'
p78
aI0
aI1
aI38
aI132
ag5
a(lp79
g7
ag7
ag7
ag7
ag7
ag7
ag7
ag7
ag7
ag7
ag7
ag7
ag7
ag7
ag7
ag7
ag7
ag7
ag7
atp80
a((lp81
g78
aI0
aI2
aI38
aI132
ag5
a(lp82
g7
ag7
ag7
ag7
ag7
ag7
ag7
ag7
ag7
ag7
ag7
ag7
ag7
ag7
ag7
ag7
ag7
ag7
ag7
atp83
a((lp84
g78
aI1
aI2
aI38
aI132
ag5
a(lp85
g7
ag7
ag7
ag7
ag7
ag7
ag7
ag7
ag7
ag7
ag7
ag7
ag7
ag7
ag7
ag7
ag7
ag7
ag7
atp86
a((lp87
g78
aI0
aI1
aI169
aI188
ag5
a(lp88
g7
ag7
ag7
ag7
atp89
a((lp90
g78
aI0
aI2
aI169
aI188
ag5
a(lp91
g7
ag7
ag7
ag7
atp92
a((lp93
g78
aI1
aI2
aI169
aI188
ag5
a(lp94
g7
ag7
ag7
ag7
atp95
a((lp96
g78
aI0
aI1
aI202
aI216
ag5
a(lp97
g7
ag7
ag7
atp98
a((lp99
g78
aI0
aI2
aI202
aI216
ag5
a(lp100
g7
ag7
ag7
atp101
a((lp102
g78
aI1
aI2
aI202
aI216
ag5
a(lp103
g7
ag7
ag7
atp104
a((lp105
S'116'
p106
aI0
aI1
aI188
aI372
ag5
a(lp107
g7
ag7
ag7
ag7
ag7
ag7
ag7
ag7
ag7
ag7
ag7
ag7
ag7
ag7
ag7
ag7
ag7
ag7
ag7
ag7
ag7
ag7
ag7
ag7
ag7
ag7
ag7
ag7
ag7
ag7
ag7
ag7
ag7
ag7
ag7
ag7
ag7
atp108
a((lp109
S'117'
p110
aI0
aI1
aI0
aI149
ag5
a(lp111
g7
ag7
ag7
ag7
ag7
ag7
ag7
ag7
ag7
ag7
ag7
ag7
ag7
ag7
ag7
ag7
ag7
ag7
ag7
ag7
ag7
ag7
ag7
ag7
ag7
ag7
ag7
ag7
ag7
ag7
atp112
a((lp113
g110
aI0
aI1
aI182
aI336
ag5
a(lp114
g7
ag7
ag7
ag7
ag7
ag7
ag7
ag7
ag7
ag7
ag7
ag7
ag7
ag7
ag7
ag7
ag7
ag7
ag7
ag7
ag7
ag7
ag7
ag7
ag7
ag7
ag7
ag7
ag7
ag7
ag7
atp115
a((lp116
g110
aI0
aI2
aI182
aI246
ag5
a(lp117
g7
ag7
ag7
ag7
ag7
ag7
ag7
ag7
ag7
ag7
ag7
ag7
ag7
atp118
a((lp119
g110
aI1
aI2
aI182
aI246
ag5
a(lp120
g7
ag7
ag7
ag7
ag7
ag7
ag7
ag7
ag7
ag7
ag7
ag7
ag7
atp121
a((lp122
g110
aI0
aI1
aI248
aI332
ag5
a(lp123
g7
ag7
ag7
ag7
ag7
ag7
ag7
ag7
ag7
ag7
ag7
ag7
ag7
ag7
ag7
ag7
ag7
atp124
a((lp125
S'118'
p126
aI0
aI1
aI0
aI14
ag5
a(lp127
g7
ag7
ag7
atp128
a((lp129
g126
aI0
aI1
aI42
aI56
ag5
a(lp130
g7
ag7
ag7
atp131
a((lp132
g126
aI0
aI2
aI42
aI56
ag5
a(lp133
g7
ag7
ag7
atp134
a((lp135
g126
aI1
aI2
aI42
aI56
ag5
a(lp136
g7
ag7
ag7
atp137
a((lp138
g126
aI0
aI1
aI489
aI493
ag5
a(lp139
g7
atp140
a((lp141
S'119'
p142
aI0
aI1
aI0
aI29
ag5
a(lp143
g7
ag7
ag7
ag7
ag7
ag7
atp144
a((lp145
g142
aI0
aI1
aI1
aI30
ag5
a(lp146
g7
ag7
ag7
ag7
ag7
ag7
atp147
a((lp148
g142
aI0
aI1
aI62
aI66
ag5
a(lp149
g7
atp150
a((lp151
g142
aI0
aI1
aI114
aI118
ag5
a(lp152
g7
atp153
a((lp154
S'120'
p155
aI0
aI1
aI7
aI66
ag5
a(lp156
g7
ag7
ag7
ag7
ag7
ag7
ag7
ag7
ag7
ag7
ag7
ag7
atp157
a((lp158
S'121'
p159
aI0
aI1
aI61
aI350
ag5
a(lp160
g7
ag7
ag7
ag7
ag7
ag7
ag7
ag7
ag7
ag7
ag7
ag7
ag7
ag7
ag7
ag7
ag7
ag7
ag7
ag7
ag7
ag7
ag7
ag7
ag7
ag7
ag7
ag7
ag7
ag7
ag7
ag7
ag7
ag7
ag7
ag7
ag7
ag7
ag7
ag7
ag7
ag7
ag7
ag7
ag7
ag7
ag7
ag7
ag7
ag7
ag7
ag7
ag7
ag7
ag7
ag7
ag7
ag7
atp161
a((lp162
g159
aI0
aI1
aI413
aI492
ag5
a(lp163
g7
ag7
ag7
ag7
ag7
ag7
ag7
ag7
ag7
ag7
ag7
ag7
ag7
ag7
ag7
ag7
atp164
a((lp165
g159
aI0
aI1
aI551
aI645
ag5
a(lp166
g7
ag7
ag7
ag7
ag7
ag7
ag7
ag7
ag7
ag7
ag7
ag7
ag7
ag7
ag7
ag7
ag7
ag7
ag7
atp167
a((lp168
S'122'
p169
aI0
aI1
aI0
aI14
ag5
a(lp170
g7
ag7
ag7
atp171
a((lp172
g169
aI0
aI2
aI0
aI14
ag5
a(lp173
g7
ag7
ag7
atp174
a((lp175
g169
aI1
aI2
aI0
aI14
ag5
a(lp176
g7
ag7
ag7
atp177
a((lp178
g169
aI0
aI1
aI51
aI65
ag5
a(lp179
g7
ag7
ag7
atp180
a((lp181
g169
aI0
aI2
aI51
aI65
ag5
a(lp182
g7
ag7
ag7
atp183
a((lp184
g169
aI1
aI2
aI51
aI65
ag5
a(lp185
g7
ag7
ag7
atp186
a((lp187
g169
aI0
aI1
aI87
aI121
ag5
a(lp188
g7
ag7
ag7
ag7
ag69
ag69
ag7
atp189
a((lp190
g169
aI0
aI2
aI87
aI121
ag5
a(lp191
g7
ag7
ag7
ag7
ag69
ag69
ag7
atp192
a((lp193
g169
aI1
aI2
aI87
aI121
ag5
a(lp194
g7
ag7
ag7
ag7
ag69
ag69
ag7
atp195
a((lp196
g169
aI0
aI1
aI157
aI171
ag5
a(lp197
g7
ag7
ag7
atp198
a((lp199
g169
aI0
aI2
aI157
aI166
ag5
a(lp200
g7
ag7
atp201
a((lp202
g169
aI1
aI2
aI157
aI166
ag5
a(lp203
g7
ag7
atp204
a((lp205
S'123'
p206
aI0
aI1
aI0
aI14
ag5
a(lp207
g7
ag7
ag7
atp208
a((lp209
g206
aI0
aI1
aI35
aI64
ag5
a(lp210
g7
ag7
ag7
ag7
ag7
ag7
atp211
a((lp212
g206
aI0
aI1
aI112
aI156
ag5
a(lp213
g7
ag7
ag7
ag7
ag7
ag7
ag7
ag7
ag7
atp214
a((lp215
g206
aI0
aI1
aI158
aI162
ag5
a(lp216
g7
atp217
a((lp218
g206
aI0
aI1
aI172
aI196
ag5
a(lp219
g7
ag7
ag7
ag7
ag7
atp220
a((lp221
S'124'
p222
aI0
aI1
aI0
aI154
ag5
a(lp223
g7
ag7
ag7
ag7
ag7
ag7
ag7
ag7
ag7
ag7
ag7
ag7
ag7
ag7
ag7
ag7
ag7
ag7
ag7
ag7
ag7
ag7
ag7
ag7
ag7
ag7
ag7
ag7
ag7
ag7
ag7
atp224
a((lp225
g222
aI0
aI1
aI190
aI319
ag5
a(lp226
g7
ag7
ag7
ag7
ag7
ag7
ag7
ag7
ag7
ag7
ag7
ag7
ag7
ag7
ag7
ag7
ag7
ag7
ag7
ag7
ag7
ag7
ag7
ag7
ag7
ag7
atp227
a((lp228
S'125'
p229
aI0
aI1
aI60
aI239
ag5
a(lp230
g7
ag7
ag7
ag7
ag7
ag7
ag7
ag7
ag7
ag7
ag7
ag7
ag7
ag7
ag7
ag7
ag7
ag7
ag7
ag7
ag7
ag7
ag7
ag7
ag7
ag7
ag7
ag7
ag7
ag7
ag7
ag7
ag7
ag7
ag7
ag7
atp231
a((lp232
S'126'
p233
aI0
aI1
aI0
aI49
ag5
a(lp234
g7
ag7
ag7
ag7
ag7
ag7
ag7
ag7
ag7
ag7
atp235
a((lp236
S'12'
p237
aI0
aI1
aI0
aI139
ag5
a(lp238
g7
ag7
ag7
ag7
ag7
ag7
ag7
ag7
ag7
ag7
ag7
ag7
ag7
ag7
ag7
ag7
ag7
ag7
ag7
ag7
ag7
ag7
ag7
ag7
ag7
ag7
ag7
ag7
atp239
a((lp240
S'131'
p241
aI0
aI1
aI140
aI174
ag5
a(lp242
g7
ag7
ag7
ag7
ag7
ag7
ag7
atp243
a((lp244
S'133'
p245
aI0
aI1
aI0
aI69
ag5
a(lp246
g7
ag7
ag7
ag7
ag7
ag7
ag7
ag7
ag7
ag7
ag7
ag7
ag7
ag7
atp247
a((lp248
g245
aI0
aI1
aI100
aI149
ag5
a(lp249
g7
ag7
ag7
ag7
ag7
ag7
ag7
ag7
ag7
ag7
atp250
a((lp251
S'134'
p252
aI0
aI1
aI0
aI99
ag5
a(lp253
g7
ag7
ag7
ag7
ag7
ag7
ag7
ag7
ag7
ag7
ag7
ag7
ag7
ag7
ag7
ag7
ag7
ag7
ag7
ag7
atp254
a((lp255
g252
aI0
aI1
aI120
aI179
ag5
a(lp256
g7
ag7
ag7
ag7
ag7
ag7
ag7
ag7
ag7
ag7
ag7
ag7
atp257
a((lp258
S'135'
p259
aI0
aI1
aI0
aI139
ag5
a(lp260
g7
ag7
ag7
ag7
ag7
ag7
ag7
ag7
ag7
ag7
ag7
ag7
ag7
ag7
ag7
ag7
ag7
ag7
ag7
ag7
ag7
ag7
ag7
ag7
ag7
ag7
ag7
ag7
atp261
a((lp262
S'136'
p263
aI0
aI1
aI120
aI249
ag5
a(lp264
g7
ag7
ag7
ag7
ag7
ag7
ag7
ag7
ag7
ag7
ag7
ag7
ag7
ag7
ag7
ag7
ag7
ag7
ag7
ag7
ag7
ag7
ag7
ag7
ag7
ag7
atp265
a((lp266
S'139'
p267
aI0
aI1
aI0
aI189
ag5
a(lp268
g7
ag7
ag7
ag7
aS'mutual'
p269
ag269
ag269
ag269
ag69
ag69
ag69
ag69
ag69
ag69
ag69
ag69
ag7
ag7
aS'share'
p270
ag270
ag270
ag270
ag270
ag270
ag270
ag270
ag270
ag270
ag270
ag270
ag7
ag7
ag7
ag7
ag7
ag7
ag69
ag69
atp271
a((lp272
g267
aI0
aI2
aI0
aI179
ag5
a(lp273
g7
ag7
ag7
ag7
ag270
ag270
ag270
ag270
ag270
ag270
ag270
ag270
ag270
ag270
ag270
ag270
aS'avert'
p274
ag274
ag274
ag274
ag274
ag274
ag274
ag274
ag274
ag274
ag274
ag274
ag274
ag274
ag274
ag274
ag274
ag274
ag274
ag274
atp275
a((lp276
g267
aI1
aI2
aI0
aI179
ag5
a(lp277
g7
ag7
ag7
ag7
ag69
ag69
ag69
ag69
ag269
ag269
ag269
ag269
ag269
ag269
ag269
ag269
ag274
ag274
ag274
ag274
ag274
ag274
ag274
ag274
ag274
ag274
ag274
ag274
ag274
ag274
ag274
ag274
ag274
ag274
ag274
ag274
atp278
a((lp279
S'13'
p280
aI0
aI1
aI421
aI445
ag5
a(lp281
g7
ag7
ag7
ag7
ag7
atp282
a((lp283
S'141'
p284
aI0
aI1
aI10
aI59
ag5
a(lp285
g7
ag7
ag7
ag7
ag7
ag7
ag7
ag7
ag7
ag7
atp286
a((lp287
S'142'
p288
aI0
aI1
aI0
aI29
ag5
a(lp289
g7
ag7
ag7
ag7
ag7
ag7
atp290
a((lp291
S'145'
p292
aI0
aI1
aI0
aI59
ag5
a(lp293
g7
ag7
ag7
ag7
ag7
ag7
ag7
ag7
ag7
ag7
ag7
ag7
atp294
a((lp295
g292
aI0
aI1
aI80
aI129
ag5
a(lp296
g7
ag7
ag7
ag7
ag7
ag7
ag7
ag7
ag7
ag7
atp297
a((lp298
S'148'
p299
aI0
aI1
aI0
aI169
ag5
a(lp300
g7
ag7
ag7
ag7
ag7
ag7
ag7
ag7
ag7
ag7
ag7
ag7
ag7
ag7
ag7
ag7
ag7
ag7
ag7
ag7
ag7
ag7
ag7
ag7
ag7
ag7
ag7
ag7
ag7
ag7
ag7
ag7
ag7
ag7
atp301
a((lp302
S'149'
p303
aI0
aI1
aI0
aI59
ag5
a(lp304
g7
ag7
ag7
ag7
ag7
ag7
ag7
ag7
ag7
ag7
ag7
ag7
atp305
a((lp306
S'152'
p307
aI0
aI1
aI0
aI179
ag5
a(lp308
g7
ag7
ag7
ag7
ag7
ag7
ag7
ag7
ag7
ag7
ag7
ag7
ag7
ag7
ag7
ag7
ag7
ag7
ag7
ag7
ag7
ag7
ag7
ag7
ag7
ag7
ag7
ag7
ag7
ag7
ag7
ag7
ag7
ag7
ag7
ag7
atp309
a((lp310
S'157'
p311
aI0
aI1
aI0
aI119
ag5
a(lp312
g269
ag269
ag7
ag7
ag7
ag7
ag7
ag7
ag7
ag7
ag7
ag7
ag7
ag7
ag7
ag7
ag7
ag7
ag274
ag274
ag274
ag274
ag7
ag7
atp313
a((lp314
S'158'
p315
aI0
aI1
aI0
aI214
ag5
a(lp316
g269
ag269
ag7
ag7
ag7
ag7
ag7
ag7
ag7
ag7
ag7
ag7
ag7
ag7
ag7
ag7
ag7
ag7
ag7
ag7
ag7
ag7
ag7
ag7
ag7
ag7
ag7
ag7
ag269
ag269
ag269
ag269
ag7
ag7
ag7
ag7
ag7
ag7
ag7
ag7
ag7
ag7
ag7
atp317
a((lp318
S'15'
p319
aI0
aI1
aI100
aI484
ag5
a(lp320
g7
ag7
ag7
ag7
ag7
ag7
ag7
ag7
ag7
ag69
ag270
ag69
ag7
ag7
ag7
ag7
ag7
ag7
ag7
ag7
ag69
ag270
ag270
ag69
ag7
ag7
ag7
ag7
ag7
ag7
ag7
ag7
ag7
ag7
ag7
ag7
ag7
ag7
ag7
ag7
ag7
ag7
ag7
ag7
ag7
ag7
ag7
ag7
ag7
ag7
ag7
ag7
ag7
ag7
ag7
ag7
ag7
ag7
ag7
ag7
ag69
ag270
ag270
ag270
ag270
ag270
ag270
ag69
ag7
ag7
ag7
ag7
ag7
ag7
ag7
ag7
ag7
atp321
a((lp322
S'162'
p323
aI0
aI1
aI0
aI129
ag5
a(lp324
g7
ag7
ag7
ag7
ag7
ag7
ag7
ag7
ag7
ag7
ag7
ag7
ag7
ag7
ag7
ag7
ag7
ag7
ag7
ag7
ag7
ag7
ag7
ag7
ag7
ag7
atp325
a((lp326
S'163'
p327
aI0
aI1
aI0
aI94
ag5
a(lp328
g7
ag7
ag7
ag7
ag7
ag7
ag7
ag7
ag7
ag7
ag7
ag7
ag7
ag7
ag7
ag7
ag7
ag7
ag7
atp329
a((lp330
S'164'
p331
aI0
aI1
aI0
aI79
ag5
a(lp332
g7
ag7
ag7
ag7
ag7
ag7
ag7
ag7
ag7
ag7
ag7
ag7
ag7
ag7
ag7
ag7
atp333
a((lp334
S'168'
p335
aI0
aI1
aI0
aI29
ag5
a(lp336
g7
ag7
ag7
ag7
ag7
ag7
atp337
a((lp338
S'170'
p339
aI0
aI1
aI0
aI4
ag5
a(lp340
g7
atp341
a((lp342
S'171'
p343
aI1
aI2
aI46
aI50
ag5
a(lp344
g270
atp345
a((lp346
g343
aI0
aI1
aI188
aI232
ag5
a(lp347
g7
ag7
ag7
ag7
ag7
ag7
ag7
ag7
ag7
atp348
a((lp349
g343
aI0
aI2
aI188
aI232
ag5
a(lp350
g7
ag7
ag7
ag7
ag7
ag7
ag7
ag7
ag7
atp351
a((lp352
g343
aI1
aI2
aI188
aI232
ag5
a(lp353
g7
ag7
ag7
ag7
ag7
ag7
ag7
ag7
ag7
atp354
a((lp355
g343
aI0
aI1
aI252
aI261
ag5
a(lp356
g7
ag7
atp357
a((lp358
g343
aI0
aI2
aI252
aI261
ag5
a(lp359
g7
ag7
atp360
a((lp361
g343
aI1
aI2
aI252
aI261
ag5
a(lp362
g7
ag7
atp363
a((lp364
S'172'
p365
aI0
aI1
aI0
aI54
ag5
a(lp366
g7
ag7
ag7
ag7
ag7
ag7
ag7
ag7
ag7
ag7
ag7
atp367
a((lp368
S'174'
p369
aI0
aI1
aI0
aI64
ag5
a(lp370
g7
ag7
ag7
ag7
ag7
ag7
ag7
ag7
ag7
ag7
ag7
ag7
ag7
atp371
a((lp372
S'175'
p373
aI0
aI1
aI30
aI124
ag5
a(lp374
g7
ag7
ag7
ag7
ag7
ag7
ag7
ag7
ag7
ag7
ag7
ag7
ag7
ag7
ag7
ag7
ag7
ag69
ag270
atp375
a((lp376
S'177'
p377
aI0
aI1
aI75
aI94
ag5
a(lp378
g7
ag7
ag7
ag7
atp379
a((lp380
S'179'
p381
aI0
aI1
aI0
aI124
ag5
a(lp382
g7
ag7
ag7
ag7
ag7
ag7
ag7
ag7
ag7
ag7
ag7
ag7
ag7
ag7
ag7
ag7
ag7
ag7
ag7
ag7
ag7
ag7
ag7
ag7
ag7
atp383
a((lp384
S'180'
p385
aI0
aI1
aI0
aI39
ag5
a(lp386
g7
ag7
ag7
ag7
ag7
ag7
ag7
ag7
atp387
a((lp388
g385
aI0
aI1
aI52
aI246
ag5
a(lp389
g7
ag7
ag7
ag7
ag7
ag7
ag7
ag7
ag7
ag7
ag7
ag7
ag7
ag7
ag7
ag7
ag7
ag7
ag7
ag7
ag7
ag7
ag7
ag7
ag7
ag7
ag7
ag7
ag7
ag7
ag7
ag7
ag7
ag7
ag7
ag7
ag7
ag7
ag7
atp390
a((lp391
S'181'
p392
aI0
aI1
aI46
aI280
ag5
a(lp393
g7
ag7
ag7
ag7
ag7
ag7
ag7
ag7
ag7
ag7
ag7
ag7
ag7
ag7
ag7
ag7
ag7
ag7
ag7
ag7
ag7
ag7
ag7
ag7
ag7
ag7
ag7
ag7
ag7
ag7
ag7
ag7
ag7
ag7
ag7
ag7
ag7
ag7
ag7
ag7
ag7
ag7
ag7
ag7
ag7
ag7
ag7
atp394
a((lp395
S'182'
p396
aI0
aI1
aI481
aI490
ag5
a(lp397
g7
ag7
atp398
a((lp399
S'183'
p400
aI0
aI1
aI0
aI34
ag5
a(lp401
g7
ag7
ag7
ag7
ag7
ag7
ag7
atp402
a((lp403
g400
aI0
aI1
aI105
aI294
ag5
a(lp404
g7
ag7
ag7
ag7
ag7
ag7
ag7
ag7
ag7
ag7
ag7
ag7
ag7
ag7
ag7
ag7
ag7
ag7
ag7
ag7
ag7
ag7
ag7
ag7
ag7
ag7
ag7
ag7
ag7
ag7
ag7
ag7
ag7
ag7
ag7
ag7
ag7
ag7
atp405
a((lp406
S'185'
p407
aI0
aI1
aI0
aI74
ag5
a(lp408
g7
ag7
ag7
ag7
ag7
ag7
ag7
ag7
ag7
ag7
ag7
ag7
ag7
ag7
ag7
atp409
a((lp410
g407
aI0
aI1
aI416
aI440
ag5
a(lp411
g7
ag7
ag7
ag7
ag7
atp412
a((lp413
S'186'
p414
aI0
aI1
aI0
aI29
ag5
a(lp415
g7
ag7
ag7
ag7
ag7
ag7
atp416
a((lp417
g414
aI0
aI1
aI67
aI211
ag5
a(lp418
g7
ag7
ag7
ag7
ag7
ag7
ag7
ag7
ag7
ag7
ag7
ag7
ag7
ag7
ag7
ag7
ag7
ag7
ag7
ag7
ag7
ag7
ag7
ag7
ag7
ag7
ag7
ag7
ag7
atp419
a((lp420
S'188'
p421
aI0
aI1
aI213
aI227
ag5
a(lp422
g7
ag7
ag7
atp423
a((lp424
g421
aI0
aI1
aI252
aI266
ag5
a(lp425
g7
ag7
ag7
atp426
a((lp427
g421
aI0
aI1
aI423
aI432
ag5
a(lp428
g7
ag7
atp429
a((lp430
S'190'
p431
aI0
aI1
aI0
aI19
ag5
a(lp432
g7
ag7
ag7
ag7
atp433
a((lp434
S'192'
p435
aI0
aI1
aI0
aI124
ag5
a(lp436
g7
ag7
ag7
ag7
ag7
ag7
ag7
ag7
ag7
ag7
ag7
ag7
ag7
ag7
ag7
ag7
ag7
ag7
ag7
ag7
ag7
ag7
ag7
ag7
ag7
atp437
a((lp438
g435
aI0
aI2
aI0
aI124
ag5
a(lp439
g7
ag7
ag7
ag7
ag7
ag7
ag7
ag7
ag7
ag7
ag7
ag7
ag7
ag7
ag7
ag7
ag7
ag7
ag7
ag7
ag7
ag7
ag7
ag7
ag7
atp440
a((lp441
g435
aI1
aI2
aI0
aI124
ag5
a(lp442
g7
ag7
ag7
ag7
ag7
ag7
ag7
ag7
ag7
ag7
ag7
ag7
ag7
ag7
ag7
ag7
ag7
ag7
ag7
ag7
ag7
ag7
ag7
ag7
ag7
atp443
a((lp444
g435
aI0
aI1
aI150
aI434
ag5
a(lp445
g7
ag7
ag7
ag7
ag7
ag7
ag7
ag7
ag7
ag7
ag7
ag7
ag7
ag7
ag7
ag7
ag7
ag7
ag7
ag7
ag7
ag7
ag7
ag7
ag7
ag7
ag7
ag7
ag7
ag7
ag7
ag7
ag7
ag7
ag7
ag7
ag7
ag7
ag7
ag7
ag7
ag7
ag7
ag7
ag7
ag7
ag7
ag7
ag7
ag7
ag7
ag7
ag7
ag7
ag7
ag7
ag7
atp446
a((lp447
g435
aI0
aI2
aI150
aI414
ag5
a(lp448
g7
ag7
ag7
ag7
ag7
ag7
ag7
ag7
ag7
ag7
ag7
ag7
ag7
ag7
ag7
ag7
ag7
ag7
ag7
ag7
ag7
ag7
ag7
ag7
ag7
ag7
ag7
ag7
ag7
ag7
ag7
ag7
ag7
ag7
ag7
ag7
ag7
ag7
ag7
ag7
ag7
ag7
ag7
ag7
ag7
ag7
ag7
ag7
ag7
ag7
ag7
ag7
ag7
atp449
a((lp450
g435
aI1
aI2
aI150
aI414
ag5
a(lp451
g7
ag7
ag7
ag7
ag7
ag7
ag7
ag7
ag7
ag7
ag7
ag7
ag7
ag7
ag7
ag7
ag7
ag7
ag7
ag7
ag7
ag7
ag7
ag7
ag7
ag7
ag7
ag7
ag7
ag7
ag7
ag7
ag7
ag7
ag7
ag7
ag7
ag7
ag7
ag7
ag7
ag7
ag7
ag7
ag7
ag7
ag7
ag7
ag7
ag7
ag7
ag7
ag7
atp452
a((lp453
g435
aI0
aI1
aI419
aI433
ag5
a(lp454
g7
ag7
ag7
atp455
a((lp456
g435
aI0
aI1
aI440
aI544
ag5
a(lp457
g7
ag7
ag7
ag7
ag7
ag7
ag7
ag7
ag7
ag7
ag7
ag7
ag7
ag7
ag7
ag7
ag7
ag7
ag7
ag7
ag7
atp458
a((lp459
S'193'
p460
aI0
aI1
aI301
aI515
ag5
a(lp461
g7
ag7
ag7
ag7
ag7
ag7
ag7
ag7
ag7
ag7
ag7
ag7
ag7
ag7
ag7
ag7
ag7
ag7
ag7
ag7
ag7
ag7
ag7
ag7
ag7
ag7
ag7
ag7
ag7
ag7
ag7
ag7
ag7
ag7
ag7
ag7
ag7
ag7
ag7
ag7
ag7
ag7
ag7
atp462
a((lp463
S'194'
p464
aI0
aI1
aI272
aI426
ag5
a(lp465
g7
ag7
ag7
ag7
ag7
ag7
ag7
ag7
ag7
ag7
ag7
ag7
ag7
ag7
ag7
ag7
ag7
ag7
ag7
ag7
ag7
ag7
ag7
ag7
ag7
ag7
ag7
ag7
ag7
ag7
ag7
atp466
a((lp467
S'195'
p468
aI0
aI1
aI0
aI104
ag5
a(lp469
g7
ag7
ag7
ag7
ag7
ag7
ag7
ag7
ag7
ag7
ag7
ag7
ag7
ag7
ag7
ag7
ag7
ag7
ag7
ag7
ag7
atp470
a((lp471
S'196'
p472
aI0
aI1
aI0
aI429
ag5
a(lp473
g7
ag7
ag7
ag7
ag7
ag7
ag7
ag7
ag7
ag7
ag7
ag7
ag7
ag7
ag7
ag7
ag7
ag7
ag7
ag7
ag7
ag7
ag7
ag7
ag7
ag7
ag7
ag7
ag7
ag7
ag7
ag7
ag7
ag7
ag7
ag7
ag7
ag7
ag7
ag7
ag7
ag7
ag7
ag7
ag7
ag7
ag7
ag7
ag7
ag7
ag7
ag7
ag7
ag7
ag7
ag7
ag7
ag7
ag7
ag7
ag7
ag7
ag7
ag7
ag7
ag7
ag7
ag7
ag7
ag7
ag7
ag7
ag7
ag7
ag7
ag7
ag7
ag7
ag7
ag7
ag7
ag69
ag69
ag69
ag69
ag69
atp474
a((lp475
g472
aI0
aI3
aI0
aI444
ag5
a(lp476
g7
ag7
ag7
ag7
ag7
ag7
ag7
ag7
ag7
ag7
ag7
ag7
ag7
ag7
ag7
ag7
ag7
ag7
ag7
ag7
ag7
ag7
ag7
ag7
ag7
ag7
ag7
ag7
ag7
ag7
ag7
ag7
ag7
ag7
ag7
ag7
ag7
ag7
ag7
ag7
ag7
ag7
ag7
ag7
ag7
ag7
ag7
ag7
ag7
ag7
ag7
ag7
ag7
ag7
ag7
ag7
ag7
ag7
ag7
ag7
ag7
ag7
ag7
ag7
ag7
ag7
ag7
ag7
ag7
ag7
ag7
ag7
ag7
ag7
ag7
ag7
ag7
ag7
ag7
ag7
ag7
ag69
ag69
ag69
ag69
ag69
ag69
ag69
ag69
atp477
a((lp478
g472
aI1
aI3
aI0
aI429
ag5
a(lp479
g7
ag7
ag7
ag7
ag7
ag7
ag7
ag7
ag7
ag7
ag7
ag7
ag7
ag7
ag7
ag7
ag7
ag7
ag7
ag7
ag7
ag7
ag7
ag7
ag7
ag7
ag7
ag7
ag7
ag7
ag7
ag7
ag7
ag7
ag7
ag7
ag7
ag7
ag7
ag7
ag7
ag7
ag7
ag7
ag7
ag7
ag7
ag7
ag7
ag7
ag7
ag7
ag7
ag7
ag7
ag7
ag7
ag7
ag7
ag7
ag7
ag7
ag7
ag7
ag7
ag7
ag7
ag7
ag7
ag7
ag7
ag7
ag7
ag7
ag7
ag7
ag7
ag7
ag7
ag7
ag7
ag270
ag270
ag270
ag270
ag270
atp480
a((lp481
S'19'
p482
aI0
aI1
aI6
aI95
ag5
a(lp483
g7
ag7
ag7
ag7
ag7
ag7
ag7
ag7
ag7
ag7
ag7
ag7
ag7
ag7
ag7
ag7
ag7
ag7
atp484
a((lp485
S'201'
p486
aI0
aI1
aI0
aI84
ag5
a(lp487
g7
ag7
ag7
ag7
ag7
ag7
ag7
ag7
ag7
ag7
ag7
ag7
ag7
ag7
ag7
ag7
ag7
atp488
a((lp489
S'203'
p490
aI0
aI1
aI0
aI24
ag5
a(lp491
g7
ag7
ag7
ag7
ag7
atp492
a((lp493
g490
aI0
aI1
aI120
aI144
ag5
a(lp494
g7
ag7
ag7
ag7
ag7
atp495
a((lp496
S'208'
p497
aI0
aI1
aI0
aI14
ag5
a(lp498
g7
ag7
ag7
atp499
a((lp500
S'213'
p501
aI0
aI1
aI16
aI75
ag5
a(lp502
g7
ag7
ag7
ag7
ag7
ag7
ag7
ag7
ag7
ag7
ag7
ag7
atp503
a((lp504
S'217'
p505
aI0
aI1
aI217
aI231
ag5
a(lp506
g7
ag7
ag7
atp507
a((lp508
S'218'
p509
aI0
aI1
aI70
aI214
ag5
a(lp510
g7
ag7
ag7
ag7
ag7
ag7
ag7
ag7
ag7
ag7
ag7
ag7
ag7
ag7
ag7
ag7
ag7
ag7
ag7
ag7
ag7
ag7
ag7
ag7
ag7
ag7
ag7
ag7
ag7
atp511
a((lp512
S'221'
p513
aI0
aI1
aI0
aI29
ag5
a(lp514
g7
ag7
ag7
ag7
ag7
ag7
atp515
a((lp516
g513
aI0
aI1
aI49
aI58
ag5
a(lp517
g270
ag7
atp518
a((lp519
g513
aI0
aI1
aI339
aI378
ag5
a(lp520
g7
ag7
ag7
ag7
ag7
ag7
ag7
ag7
atp521
a((lp522
S'223'
p523
aI0
aI1
aI0
aI194
ag5
a(lp524
g7
ag7
ag7
ag7
ag7
ag7
ag7
ag7
ag7
ag7
ag7
ag7
ag7
ag7
ag7
ag7
ag7
ag7
ag7
ag7
ag7
ag7
ag7
ag7
ag7
ag7
ag7
ag7
ag7
ag7
ag7
ag7
ag7
ag7
ag7
ag7
ag7
ag7
ag7
atp525
a((lp526
S'224'
p527
aI0
aI1
aI0
aI89
ag5
a(lp528
g7
ag7
ag7
ag7
ag7
ag7
ag7
ag7
ag7
ag7
ag7
ag7
ag7
ag7
ag7
ag7
ag7
ag7
atp529
a((lp530
S'237'
p531
aI0
aI1
aI154
aI218
ag5
a(lp532
g7
ag7
ag7
ag7
ag7
ag7
ag7
ag7
ag7
ag7
ag7
ag7
ag7
atp533
a((lp534
S'239'
p535
aI0
aI1
aI0
aI89
ag5
a(lp536
g7
ag7
ag7
ag7
ag7
ag7
ag7
ag7
ag7
ag7
ag7
ag7
ag7
ag7
ag7
ag7
ag7
ag7
atp537
a((lp538
S'241'
p539
aI0
aI1
aI210
aI269
ag5
a(lp540
g7
ag7
ag7
ag7
ag7
ag7
ag7
ag7
ag7
ag7
ag7
ag7
atp541
a((lp542
S'242'
p543
aI0
aI1
aI310
aI329
ag5
a(lp544
g7
ag7
ag269
ag269
atp545
a((lp546
S'243'
p547
aI0
aI1
aI0
aI19
ag5
a(lp548
g7
ag7
ag7
ag7
atp549
a((lp550
g547
aI0
aI1
aI100
aI109
ag5
a(lp551
g7
ag7
atp552
a((lp553
S'245'
p554
aI0
aI1
aI30
aI49
ag5
a(lp555
g7
ag7
ag7
ag7
atp556
a((lp557
S'246'
p558
aI0
aI1
aI30
aI199
ag5
a(lp559
g7
ag7
ag7
ag7
ag270
ag270
ag270
ag270
ag270
ag270
ag270
ag270
ag270
ag270
ag270
ag270
ag270
ag270
ag7
ag7
ag7
ag7
ag7
ag7
ag7
ag7
ag7
ag7
ag7
ag7
ag7
ag7
ag7
ag7
atp560
a((lp561
S'247'
p562
aI0
aI1
aI30
aI79
ag5
a(lp563
g7
ag7
ag7
ag7
ag7
ag7
ag7
ag7
ag7
ag7
atp564
a((lp565
g562
aI0
aI1
aI320
aI469
ag5
a(lp566
g7
ag7
ag7
ag7
ag7
ag7
ag7
ag7
ag269
ag269
ag269
ag269
ag269
ag269
ag269
ag269
ag7
ag7
ag7
ag7
ag7
ag7
ag7
ag7
ag7
ag7
ag7
ag7
ag7
ag7
atp567
a((lp568
S'248'
p569
aI0
aI1
aI70
aI89
ag5
a(lp570
g7
ag7
ag7
ag7
atp571
a((lp572
g569
aI0
aI1
aI110
aI169
ag5
a(lp573
g7
ag7
ag7
ag7
ag7
ag7
ag7
ag7
ag7
ag7
ag7
ag7
atp574
a((lp575
g569
aI0
aI1
aI270
aI404
ag5
a(lp576
g7
ag7
ag7
ag7
ag7
ag7
ag7
ag7
ag7
ag7
ag7
ag7
aS'follow'
p577
ag577
ag577
ag577
ag577
ag577
ag577
ag577
ag577
ag577
ag577
ag577
ag577
ag577
ag577
atp578
a((lp579
g569
aI0
aI2
aI270
aI329
ag5
a(lp580
g7
ag7
ag7
ag7
ag7
ag7
ag7
ag7
ag7
ag7
ag7
ag7
atp581
a((lp582
g569
aI1
aI2
aI270
aI329
ag5
a(lp583
g7
ag7
ag7
ag7
ag7
ag7
ag7
ag7
ag7
ag7
ag7
ag7
atp584
a((lp585
g569
aI0
aI1
aI330
aI404
ag5
a(lp586
g577
ag577
ag577
ag577
ag577
ag577
ag577
ag577
ag577
ag577
ag577
ag577
ag577
ag577
ag577
atp587
a((lp588
S'249'
p589
aI1
aI2
aI340
aI399
ag5
a(lp590
g270
ag270
ag270
ag270
ag270
ag270
ag270
ag270
ag270
ag270
ag270
ag270
atp591
a((lp592
S'24'
p593
aI0
aI1
aI49
aI183
ag5
a(lp594
g7
ag7
ag7
ag7
ag7
ag7
ag7
ag7
ag7
ag7
ag7
ag7
ag7
ag69
ag69
ag7
ag7
ag7
ag7
ag7
ag7
ag7
ag7
ag7
ag7
ag7
ag7
atp595
a((lp596
g593
aI0
aI1
aI193
aI212
ag5
a(lp597
g7
ag7
ag7
ag7
atp598
a((lp599
S'251'
p600
aI1
aI2
aI0
aI49
ag5
a(lp601
g577
ag577
ag577
ag577
ag577
ag577
ag577
ag577
ag577
ag577
atp602
a((lp603
S'252'
p604
aI0
aI2
aI0
aI159
ag5
a(lp605
g270
ag270
ag270
ag270
ag270
ag270
ag270
ag270
ag270
ag270
ag270
ag270
ag270
ag270
ag270
ag270
ag270
ag270
ag270
ag270
ag270
ag270
ag270
ag270
ag270
ag270
ag270
ag270
ag270
ag270
ag270
ag270
atp606
a((lp607
g604
aI0
aI1
aI480
aI509
ag5
a(lp608
g7
ag7
ag7
ag7
ag7
ag7
atp609
a((lp610
S'253'
p611
aI0
aI2
aI0
aI279
ag5
a(lp612
g270
ag270
ag270
ag270
ag270
ag270
ag270
ag270
ag270
ag270
ag270
ag270
ag270
ag270
ag270
ag270
ag270
ag270
ag270
ag270
ag270
ag270
ag270
ag270
ag270
ag270
ag270
ag270
ag270
ag270
ag270
ag270
ag270
ag270
ag270
ag270
ag270
ag270
ag270
ag270
ag270
ag270
ag270
ag270
ag270
ag270
ag270
ag270
ag270
ag270
ag270
ag270
ag270
ag270
ag270
ag270
atp613
a((lp614
S'261'
p615
aI0
aI1
aI120
aI124
ag5
a(lp616
g7
atp617
a((lp618
S'262'
p619
aI0
aI1
aI283
aI297
ag5
a(lp620
g7
ag7
ag7
atp621
a((lp622
S'264'
p623
aI0
aI1
aI0
aI124
ag5
a(lp624
g7
ag7
ag7
ag7
ag7
ag7
ag7
ag7
ag7
ag7
ag7
ag7
ag7
ag7
ag7
ag7
ag7
ag7
ag7
ag7
ag7
ag7
ag7
ag7
ag7
atp625
a((lp626
S'266'
p627
aI0
aI1
aI167
aI236
ag5
a(lp628
g7
ag7
ag7
ag7
ag7
ag7
ag7
ag7
ag7
ag7
ag7
ag7
ag7
ag7
atp629
a((lp630
S'270'
p631
aI0
aI1
aI0
aI19
ag5
a(lp632
g7
ag7
ag7
ag7
atp633
a((lp634
S'272'
p635
aI0
aI1
aI0
aI49
ag5
a(lp636
g7
ag7
ag7
ag7
ag7
ag7
ag7
ag7
ag7
ag7
atp637
a((lp638
S'274'
p639
aI0
aI1
aI0
aI29
ag5
a(lp640
g7
ag7
ag7
ag7
ag7
ag7
atp641
a((lp642
S'276'
p643
aI0
aI1
aI16
aI60
ag5
a(lp644
g7
ag7
ag7
ag7
ag7
ag7
ag7
ag7
ag7
atp645
a((lp646
g643
aI0
aI1
aI93
aI157
ag5
a(lp647
g7
ag7
ag7
ag7
ag7
ag7
ag7
ag7
ag7
ag7
ag7
ag7
ag7
atp648
a((lp649
g643
aI0
aI1
aI242
aI296
ag5
a(lp650
g7
ag7
ag7
ag7
ag7
ag7
ag7
ag7
ag7
ag7
ag7
atp651
a((lp652
S'278'
p653
aI0
aI1
aI0
aI44
ag5
a(lp654
g7
ag7
ag7
ag7
ag7
ag7
ag7
ag7
ag7
atp655
a((lp656
S'279'
p657
aI0
aI1
aI15
aI44
ag5
a(lp658
g7
ag7
ag7
ag7
ag7
ag7
atp659
a((lp660
S'280'
p661
aI0
aI1
aI0
aI14
ag5
a(lp662
g7
ag7
ag7
atp663
a((lp664
g661
aI0
aI1
aI66
aI110
ag5
a(lp665
g7
ag7
ag7
ag7
ag7
ag7
ag7
ag7
ag7
atp666
a((lp667
g661
aI0
aI1
aI263
aI432
ag5
a(lp668
g7
ag7
ag7
ag7
ag7
ag7
ag7
ag7
ag7
ag7
ag7
ag7
ag7
ag7
ag7
ag7
ag7
ag7
ag7
ag7
ag7
ag7
ag7
ag7
ag7
ag7
ag7
ag7
ag7
ag7
ag7
ag7
ag7
ag7
atp669
a((lp670
S'282'
p671
aI0
aI1
aI44
aI158
ag5
a(lp672
g7
ag7
ag7
ag7
ag7
ag7
ag7
ag7
ag7
ag7
ag7
ag7
ag7
ag7
ag7
ag7
ag7
ag7
ag7
ag7
ag7
ag7
ag7
atp673
a((lp674
g671
aI0
aI1
aI322
aI381
ag5
a(lp675
g7
ag7
ag7
ag7
ag7
ag7
ag7
ag7
ag7
ag7
ag7
ag7
atp676
a((lp677
g671
aI0
aI1
aI400
aI414
ag5
a(lp678
g7
ag7
ag7
atp679
a((lp680
S'283'
p681
aI0
aI1
aI0
aI4
ag5
a(lp682
g7
atp683
a((lp684
S'284'
p685
aI0
aI1
aI0
aI169
ag5
a(lp686
g7
ag7
ag7
ag7
ag7
ag7
ag7
ag7
ag7
ag7
ag7
ag7
ag7
ag7
ag7
ag7
ag7
ag7
ag7
ag7
ag7
ag7
ag7
ag7
ag7
ag7
ag7
ag7
ag7
ag7
ag7
ag7
ag7
ag7
atp687
a((lp688
S'285'
p689
aI0
aI1
aI0
aI199
ag5
a(lp690
g7
ag7
ag7
ag7
ag7
ag7
ag7
ag7
ag7
ag7
ag7
ag7
ag7
ag7
ag7
ag7
ag7
ag7
ag7
ag7
ag7
ag7
ag7
ag7
ag7
ag7
ag7
ag7
ag7
ag7
ag7
ag7
ag7
ag7
ag7
ag7
ag7
ag7
ag7
ag7
atp691
a((lp692
S'286'
p693
aI0
aI1
aI118
aI347
ag5
a(lp694
g7
ag7
ag7
ag7
ag7
ag7
ag7
ag7
ag7
ag7
ag7
ag7
ag7
ag7
ag7
ag7
ag7
ag7
ag7
ag7
ag7
ag7
ag7
ag7
ag7
ag7
ag7
ag7
ag7
ag7
ag7
ag7
ag7
ag7
ag7
ag7
ag7
ag7
ag7
ag7
ag7
ag7
ag7
ag7
ag7
ag7
atp695
a((lp696
g693
aI0
aI1
aI355
aI464
ag5
a(lp697
g7
ag7
ag7
ag7
ag7
ag7
ag7
ag7
ag7
ag7
ag7
ag7
ag7
ag7
ag7
ag7
ag7
ag7
ag7
ag7
ag7
ag7
atp698
a((lp699
S'287'
p700
aI0
aI1
aI0
aI279
ag5
a(lp701
g7
ag7
ag7
ag7
ag7
ag7
ag7
ag7
ag7
ag7
ag7
ag7
ag7
ag7
ag7
ag7
ag7
ag7
ag7
ag7
ag7
ag7
ag7
ag7
ag7
ag7
ag7
ag7
ag7
ag7
ag7
ag7
ag7
ag7
ag7
ag7
ag7
ag7
ag7
ag7
ag7
ag7
ag7
ag7
ag7
ag7
ag7
ag7
ag7
ag7
ag7
ag7
ag7
ag7
ag7
ag7
atp702
a((lp703
g700
aI0
aI1
aI302
aI311
ag5
a(lp704
g7
ag7
atp705
a((lp706
S'288'
p707
aI0
aI1
aI0
aI9
ag5
a(lp708
g7
ag7
atp709
a((lp710
S'28'
p711
aI0
aI1
aI184
aI223
ag5
a(lp712
g7
ag7
ag7
ag7
ag7
ag7
ag7
ag7
atp713
a((lp714
S'290'
p715
aI0
aI1
aI0
aI189
ag5
a(lp716
g7
ag7
ag7
ag7
ag7
ag7
ag7
ag7
ag7
ag7
ag7
ag7
ag7
ag7
ag7
ag7
ag7
ag7
ag7
ag7
ag7
ag7
ag7
ag7
ag7
ag7
ag7
ag7
ag7
ag7
ag7
ag7
ag7
ag7
ag7
ag7
ag7
ag7
atp717
a((lp718
g715
aI0
aI2
aI0
aI189
ag5
a(lp719
g7
ag7
ag7
ag7
ag7
ag7
ag7
ag7
ag7
ag7
ag7
ag7
ag7
ag7
ag7
ag7
ag7
ag7
ag7
ag7
ag7
ag7
ag7
ag7
ag7
ag7
ag7
ag7
ag7
ag7
ag7
ag7
ag7
ag7
ag7
ag7
ag7
ag7
atp720
a((lp721
g715
aI1
aI2
aI0
aI189
ag5
a(lp722
g7
ag7
ag7
ag7
ag7
ag7
ag7
ag7
ag7
ag7
ag7
ag7
ag7
ag7
ag7
ag7
ag7
ag7
ag7
ag7
ag7
ag7
ag7
ag7
ag7
ag7
ag7
ag7
ag7
ag7
ag7
ag7
ag7
ag7
ag7
ag7
ag7
ag7
atp723
a((lp724
g715
aI0
aI1
aI206
aI265
ag5
a(lp725
g7
ag7
ag7
ag7
ag7
ag7
ag7
ag7
ag7
ag7
ag7
ag7
atp726
a((lp727
g715
aI0
aI2
aI206
aI265
ag5
a(lp728
g7
ag7
ag7
ag7
ag7
ag7
ag7
ag7
ag7
ag7
ag7
ag7
atp729
a((lp730
g715
aI1
aI2
aI206
aI265
ag5
a(lp731
g7
ag7
ag7
ag7
ag7
ag7
ag7
ag7
ag7
ag7
ag7
ag7
atp732
a((lp733
g715
aI0
aI2
aI276
aI285
ag5
a(lp734
g7
ag7
atp735
a((lp736
S'292'
p737
aI0
aI1
aI0
aI84
ag5
a(lp738
g7
ag7
ag7
ag7
ag7
ag7
ag7
ag7
ag7
ag7
ag7
ag7
ag7
ag7
ag7
ag7
ag7
atp739
a((lp740
g737
aI0
aI2
aI0
aI84
ag5
a(lp741
g7
ag7
ag7
ag7
ag7
ag7
ag7
ag7
ag7
ag7
ag7
ag7
ag7
ag7
ag7
ag7
ag7
atp742
a((lp743
g737
aI1
aI2
aI0
aI84
ag5
a(lp744
g7
ag7
ag7
ag7
ag7
ag7
ag7
ag7
ag7
ag7
ag7
ag7
ag7
ag7
ag7
ag7
ag7
atp745
a((lp746
S'296'
p747
aI0
aI1
aI47
aI251
ag5
a(lp748
g7
ag7
ag7
ag7
ag7
ag7
ag7
ag7
ag7
ag7
ag7
ag7
ag7
ag7
ag7
ag7
ag7
ag7
ag7
ag7
ag7
ag7
ag7
ag7
ag7
ag7
ag7
ag7
ag7
ag7
ag7
ag7
ag7
ag7
ag7
ag7
ag7
ag7
ag7
ag7
ag7
atp749
a((lp750
S'297'
p751
aI0
aI1
aI0
aI29
ag5
a(lp752
g7
ag7
ag7
ag7
ag7
ag7
atp753
a((lp754
g751
aI0
aI2
aI0
aI29
ag5
a(lp755
g7
ag7
ag7
ag7
ag7
ag7
atp756
a((lp757
g751
aI1
aI2
aI0
aI29
ag5
a(lp758
g7
ag7
ag7
ag7
ag7
ag7
atp759
a((lp760
g751
aI0
aI1
aI175
aI209
ag5
a(lp761
g7
ag7
ag7
ag7
ag7
ag7
ag7
atp762
a((lp763
g751
aI0
aI2
aI175
aI189
ag5
a(lp764
g7
ag7
ag7
atp765
a((lp766
g751
aI1
aI2
aI175
aI189
ag5
a(lp767
g7
ag7
ag7
atp768
a((lp769
g751
aI0
aI1
aI190
aI209
ag5
a(lp770
g7
ag7
ag7
ag7
atp771
a((lp772
S'299'
p773
aI0
aI1
aI0
aI29
ag5
a(lp774
g7
ag7
ag7
ag7
ag7
ag7
atp775
a((lp776
g773
aI0
aI1
aI43
aI272
ag5
a(lp777
g7
ag7
ag7
ag7
ag7
ag7
ag7
ag7
ag7
ag7
ag7
ag7
ag7
ag7
ag7
ag7
ag7
ag7
ag7
ag7
ag7
ag7
ag7
ag7
ag7
ag7
ag7
ag7
ag7
ag7
ag7
ag7
ag7
ag7
ag7
ag7
ag7
ag7
ag7
ag7
ag7
ag7
ag7
ag7
ag7
ag7
atp778
a((lp779
S'301'
p780
aI0
aI1
aI199
aI403
ag5
a(lp781
g7
ag7
ag7
ag7
ag7
ag7
ag7
ag7
ag7
ag7
ag7
ag7
ag7
ag7
ag7
ag7
ag7
ag7
ag7
ag7
ag7
ag7
ag7
ag7
ag7
ag7
ag7
ag7
ag7
ag7
ag7
ag7
ag7
ag7
ag7
ag7
ag7
ag7
ag7
ag7
ag7
atp782
a((lp783
S'30'
p784
aI0
aI1
aI0
aI124
ag5
a(lp785
g69
ag69
ag69
ag69
ag69
ag69
ag69
ag7
ag7
ag7
ag7
ag7
ag7
ag7
ag7
ag7
ag7
ag7
ag7
ag7
ag7
ag7
ag7
ag7
ag7
atp786
a((lp787
S'32'
p788
aI0
aI1
aI24
aI93
ag5
a(lp789
g7
ag7
ag7
ag7
ag7
ag7
ag7
ag7
ag7
ag7
ag7
ag7
ag7
ag7
atp790
a((lp791
g788
aI0
aI1
aI111
aI190
ag5
a(lp792
g7
ag7
ag7
ag7
ag7
ag7
ag7
ag7
ag7
ag7
ag7
ag7
ag7
ag7
ag7
ag7
atp793
a((lp794
g788
aI0
aI1
aI307
aI311
ag5
a(lp795
g7
atp796
a((lp797
S'33'
p798
aI0
aI1
aI0
aI19
ag5
a(lp799
g7
ag7
ag7
ag7
atp800
a((lp801
g798
aI0
aI1
aI116
aI220
ag5
a(lp802
g7
ag7
ag7
ag7
ag7
ag7
ag7
ag7
ag7
ag7
ag7
ag7
ag7
ag7
ag7
ag7
ag7
ag7
ag7
ag7
ag7
atp803
a((lp804
S'34'
p805
aI0
aI1
aI38
aI107
ag5
a(lp806
g69
ag7
ag7
ag7
ag7
ag7
ag7
ag7
ag7
ag7
ag7
ag7
ag7
ag7
atp807
a((lp808
g805
aI0
aI2
aI38
aI107
ag5
a(lp809
g69
ag7
ag7
ag7
ag7
ag7
ag7
ag7
ag7
ag7
ag7
ag7
ag7
ag7
atp810
a((lp811
g805
aI1
aI2
aI38
aI107
ag5
a(lp812
g69
ag7
ag7
ag7
ag7
ag7
ag7
ag7
ag7
ag7
ag7
ag7
ag7
ag7
atp813
a((lp814
S'35'
p815
aI0
aI1
aI0
aI4
ag5
a(lp816
g7
atp817
a((lp818
S'39'
p819
aI0
aI1
aI0
aI159
ag5
a(lp820
g7
ag7
ag7
ag7
ag7
ag7
ag7
ag7
ag7
ag69
ag270
ag270
ag69
ag7
ag7
ag7
ag7
ag7
ag7
ag7
ag7
ag7
ag7
ag7
ag7
ag7
ag7
ag7
ag7
ag7
ag7
ag7
atp821
a((lp822
S'45'
p823
aI0
aI1
aI0
aI184
ag5
a(lp824
g270
ag270
ag69
ag7
ag7
ag7
ag7
ag7
ag7
ag7
ag7
ag7
ag7
ag7
ag7
ag7
ag7
ag7
ag7
ag7
ag7
ag7
ag7
ag7
ag7
ag7
ag7
ag7
ag7
ag7
ag7
ag7
ag7
ag270
ag270
ag270
ag69
atp825
a((lp826
S'48'
p827
aI0
aI3
aI248
aI342
ag5
a(lp828
g7
ag7
ag69
ag69
ag69
ag69
ag7
ag7
ag7
ag7
ag7
ag7
ag7
ag7
ag7
ag7
ag7
ag7
ag7
atp829
a((lp830
S'4'
p831
aI0
aI1
aI101
aI315
ag5
a(lp832
g7
ag7
ag7
ag7
ag7
ag7
ag7
ag7
ag7
ag7
ag7
ag7
ag7
ag7
ag7
ag7
ag7
ag7
ag7
ag7
ag7
ag7
ag7
ag7
ag7
ag7
ag7
ag7
ag7
ag7
ag7
ag7
ag7
ag7
ag7
ag7
ag7
ag7
ag7
ag7
ag7
ag7
ag7
atp833
a((lp834
S'59'
p835
aI1
aI2
aI0
aI59
ag5
a(lp836
g7
ag7
ag7
ag7
ag7
ag7
ag7
ag7
ag270
ag270
ag270
ag270
atp837
a((lp838
S'5'
p839
aI0
aI1
aI0
aI19
ag5
a(lp840
g7
ag7
ag7
ag7
atp841
a((lp842
S'61'
p843
aI0
aI1
aI185
aI334
ag5
a(lp844
g7
ag7
ag69
ag270
ag270
ag270
ag270
ag270
ag270
ag270
ag270
ag270
ag270
ag69
ag7
ag7
ag7
ag7
ag69
ag270
ag69
ag7
ag7
ag7
ag7
ag7
ag7
ag7
ag7
ag7
atp845
a((lp846
S'65'
p847
aI0
aI1
aI54
aI93
ag5
a(lp848
g7
ag7
ag7
ag7
ag7
ag7
ag7
ag7
atp849
a((lp850
S'66'
p851
aI0
aI1
aI0
aI419
ag5
a(lp852
g7
ag7
ag7
ag7
ag7
ag7
ag7
ag7
ag7
ag7
ag7
ag7
ag7
ag7
ag7
ag7
ag7
ag7
ag7
ag7
ag7
ag7
ag7
ag7
ag7
ag7
ag7
ag7
ag7
ag7
ag7
ag7
ag7
ag7
ag7
ag7
ag69
ag269
ag269
ag269
ag269
ag269
ag69
ag7
ag7
ag7
ag7
ag7
ag7
ag7
ag7
ag7
ag7
ag7
ag7
ag7
ag7
ag7
ag7
ag7
ag7
ag7
ag7
ag7
ag7
ag7
ag7
ag7
ag7
ag7
ag7
ag7
ag7
ag7
ag7
ag7
ag7
ag7
ag7
ag7
ag7
ag7
ag7
ag7
atp853
a((lp854
S'6'
p855
aI0
aI1
aI0
aI159
ag5
a(lp856
g7
ag7
ag7
ag7
ag69
ag7
ag7
ag7
ag7
ag7
ag7
ag7
ag7
ag7
ag7
ag7
ag7
ag7
ag7
ag7
ag7
ag7
ag7
ag7
ag7
ag7
ag7
ag7
ag7
ag7
ag69
ag270
atp857
a((lp858
S'79'
p859
aI0
aI1
aI123
aI257
ag5
a(lp860
g7
ag7
ag7
ag7
ag7
ag7
ag7
ag7
ag7
ag7
ag7
ag7
ag7
ag7
ag7
ag7
ag7
ag7
ag7
ag7
ag7
ag7
ag7
ag7
ag7
ag7
ag7
atp861
a((lp862
S'80'
p863
aI0
aI1
aI0
aI39
ag5
a(lp864
g7
ag7
ag7
ag7
ag7
ag7
ag7
ag7
atp865
a((lp866
S'83'
p867
aI0
aI1
aI128
aI237
ag5
a(lp868
g7
ag7
ag7
ag7
ag7
ag7
ag7
ag7
ag7
ag7
ag7
ag7
ag7
ag7
ag7
ag7
ag7
ag7
ag7
ag7
ag7
ag7
atp869
a((lp870
S'86'
p871
aI0
aI1
aI0
aI229
ag5
a(lp872
g7
ag7
ag7
ag7
ag7
ag7
ag7
ag7
ag7
ag7
ag7
ag7
ag7
ag7
ag7
ag7
ag7
ag7
ag7
ag7
ag7
ag7
ag7
ag7
ag7
ag7
ag7
ag7
ag7
ag7
ag7
ag7
ag7
ag7
ag7
ag7
ag7
ag7
ag7
ag7
ag7
ag7
ag7
ag7
ag7
ag7
atp873
a((lp874
g871
aI0
aI1
aI272
aI411
ag5
a(lp875
g7
ag7
ag7
ag7
ag7
ag7
ag7
ag7
ag7
ag7
ag7
ag7
ag7
ag7
ag7
ag7
ag7
ag7
ag7
ag7
ag7
ag7
ag7
ag7
ag7
ag7
ag7
ag7
atp876
a((lp877
g871
aI0
aI1
aI481
aI675
ag5
a(lp878
g7
ag7
ag7
ag7
ag7
ag7
ag7
ag7
ag7
ag7
ag7
ag7
ag7
ag7
ag7
ag7
ag7
ag7
ag7
ag7
ag7
ag7
ag7
ag7
ag7
ag7
ag7
ag7
ag7
ag7
ag7
ag7
ag7
ag7
ag7
ag7
ag7
ag7
ag7
atp879
a((lp880
S'87'
p881
aI0
aI1
aI0
aI324
ag5
a(lp882
g7
ag7
ag7
ag7
ag7
ag7
ag7
ag7
ag7
ag7
ag7
ag7
ag7
ag7
ag7
ag7
ag7
ag7
ag7
ag7
ag7
ag7
ag7
ag7
ag7
ag7
ag7
ag7
ag7
ag7
ag7
ag7
ag7
ag7
ag7
ag7
ag7
ag7
ag7
ag7
ag7
ag7
ag7
ag7
ag7
ag7
ag7
ag7
ag7
ag7
ag7
ag7
ag7
ag7
ag7
ag7
ag7
ag7
ag7
ag7
ag7
ag7
ag7
ag7
ag7
atp883
a((lp884
S'88'
p885
aI0
aI1
aI0
aI49
ag5
a(lp886
g7
ag7
ag7
ag7
ag7
ag7
ag7
ag7
ag7
ag7
atp887
a((lp888
g885
aI0
aI1
aI122
aI401
ag5
a(lp889
g7
ag7
ag7
ag7
ag7
ag7
ag7
ag7
ag7
ag7
ag7
ag7
ag7
ag7
ag7
ag7
ag7
ag7
ag7
ag7
ag7
ag7
ag7
ag7
ag7
ag7
ag7
ag7
ag7
ag7
ag7
ag7
ag7
ag7
ag7
ag7
ag7
ag7
ag7
ag7
ag7
ag7
ag7
ag7
ag7
ag7
ag7
ag7
ag7
ag7
ag7
ag7
ag7
ag7
ag7
ag7
atp890
a((lp891
g885
aI0
aI1
aI456
aI490
ag5
a(lp892
g7
ag7
ag7
ag7
ag7
ag7
ag7
atp893
a((lp894
S'89'
p895
aI0
aI1
aI19
aI53
ag5
a(lp896
g7
ag7
ag7
ag7
ag7
ag7
ag7
atp897
a((lp898
S'92'
p899
aI0
aI1
aI101
aI115
ag5
a(lp900
g7
ag7
ag7
atp901
a((lp902
S'94'
p903
aI0
aI1
aI0
aI79
ag5
a(lp904
g7
ag7
ag7
ag7
ag7
ag7
ag7
ag7
ag7
ag7
ag7
ag7
ag7
ag7
ag7
ag7
atp905
a((lp906
g903
aI0
aI1
aI492
aI516
ag5
a(lp907
g7
ag7
ag7
ag7
ag7
atp908
a((lp909
S'95'
p910
aI0
aI1
aI50
aI109
ag5
a(lp911
g7
ag7
ag7
ag7
ag7
ag7
ag7
ag7
ag7
ag7
ag7
ag7
atp912
a((lp913
g910
aI0
aI1
aI218
aI272
ag5
a(lp914
g7
ag7
ag7
ag7
ag7
ag7
ag7
ag7
ag7
ag7
ag7
atp915
a((lp916
S'96'
p917
aI0
aI2
aI0
aI29
ag5
a(lp918
g7
ag7
ag69
ag270
ag270
ag270
atp919
a((lp920
g917
aI0
aI2
aI46
aI65
ag5
a(lp921
g270
ag270
ag270
ag270
atp922
a((lp923
g917
aI0
aI1
aI171
aI180
ag5
a(lp924
g7
ag7
atp925
a((lp926
S'97'
p927
aI0
aI1
aI0
aI124
ag5
a(lp928
g7
ag7
ag7
ag7
ag7
ag7
ag7
ag7
ag7
ag7
ag7
ag7
ag7
ag7
ag7
ag7
ag7
ag7
ag69
ag69
ag7
ag7
ag7
ag7
ag7
atp929
a((lp930
g927
aI0
aI2
aI0
aI124
ag5
a(lp931
g7
ag7
ag7
ag7
ag7
ag7
ag7
ag7
ag7
ag7
ag7
ag7
ag7
ag7
ag7
ag7
ag7
ag7
ag270
ag69
ag7
ag7
ag7
ag7
ag7
atp932
a((lp933
g927
aI1
aI2
aI0
aI124
ag5
a(lp934
g7
ag7
ag7
ag7
ag7
ag7
ag7
ag7
ag7
ag7
ag7
ag7
ag7
ag7
ag7
ag7
ag7
ag7
ag69
ag69
ag7
ag7
ag7
ag7
ag7
atp935
a((lp936
g927
aI0
aI1
aI189
aI253
ag5
a(lp937
g7
ag7
ag7
ag7
ag7
ag7
ag7
ag7
ag7
ag7
ag7
ag7
ag7
atp938
a((lp939
g927
aI0
aI2
aI189
aI203
ag5
a(lp940
g7
ag7
ag7
atp941
a((lp942
g927
aI1
aI2
aI189
aI203
ag5
a(lp943
g7
ag7
ag7
atp944
a((lp945
g927
aI0
aI1
aI207
aI256
ag5
a(lp946
g7
ag7
ag7
ag7
ag7
ag7
ag7
ag7
ag7
ag7
atp947
a((lp948
S'98'
p949
aI0
aI1
aI0
aI34
ag5
a(lp950
g7
ag7
ag7
ag7
ag7
ag7
ag7
atp951
a((lp952
g949
aI0
aI1
aI147
aI166
ag5
a(lp953
g7
ag7
ag7
ag7
atp954
a((lp955
g949
aI0
aI2
aI147
aI166
ag5
a(lp956
g7
ag7
ag7
ag7
atp957
a((lp958
g949
aI1
aI2
aI147
aI166
ag5
a(lp959
g7
ag7
ag7
ag7
atp960
a((lp961
g949
aI0
aI1
aI261
aI275
ag5
a(lp962
g7
ag7
ag7
atp963
a((lp964
g949
aI0
aI2
aI261
aI275
ag5
a(lp965
g7
ag7
ag7
atp966
a((lp967
g949
aI1
aI2
aI261
aI275
ag5
a(lp968
g7
ag7
ag7
atp969
a((lp970
S'99'
p971
aI0
aI1
aI113
aI157
ag5
a(lp972
g7
ag7
ag7
ag7
ag7
ag7
ag7
ag7
ag7
atp973
a((lp974
S'9'
p975
aI0
aI1
aI0
aI54
ag5
a(lp976
g7
ag7
ag7
ag7
ag7
ag7
ag7
ag7
ag7
ag7
ag7
atp977
a((lp978
g975
aI0
aI1
aI208
aI257
ag5
a(lp979
g7
ag7
ag7
ag7
ag7
ag7
ag7
ag7
ag7
ag7
atp980
a((lp981
g975
aI0
aI1
aI292
aI321
ag5
a(lp982
g7
ag7
ag7
ag7
ag7
ag7
atp983
a((lp984
g975
aI0
aI1
aI350
aI379
ag5
a(lp985
g7
ag7
ag7
ag7
ag7
ag7
atp986
a((lp987
g975
aI0
aI1
aI449
aI453
ag5
a(lp988
g7
atp989
asS'GazeFollow'
p990
(lp991
((lp992
S'133'
p993
aI0
aI1
aI210
aI214
aS'GazeFollow'
p994
a(lp995
g577
atp996
a((lp997
S'175'
p998
aI0
aI1
aI0
aI14
ag994
a(lp999
g7
ag577
ag270
atp1000
a((lp1001
S'198'
p1002
aI0
aI1
aI0
aI284
ag994
a(lp1003
g7
ag7
ag7
ag7
ag7
ag7
ag577
ag270
ag270
ag270
ag577
ag7
ag7
ag7
ag7
ag7
ag7
ag7
ag7
ag7
ag7
ag7
ag7
ag7
ag7
ag7
ag7
ag7
ag7
ag7
ag7
ag7
ag7
ag7
ag7
ag7
ag577
ag270
ag270
ag270
ag69
ag7
ag7
ag7
ag7
ag7
ag7
ag7
ag7
ag7
ag7
ag7
ag7
ag7
ag7
ag7
ag577
atp1004
a((lp1005
S'199'
p1006
aI0
aI1
aI53
aI192
ag994
a(lp1007
g7
ag7
ag7
ag7
ag7
ag7
ag7
ag577
ag577
ag577
ag577
ag577
ag577
ag577
ag577
ag577
ag7
ag7
ag7
ag7
ag7
ag577
ag577
ag270
ag270
ag270
ag270
ag270
atp1008
a((lp1009
S'200'
p1010
aI0
aI1
aI0
aI94
ag994
a(lp1011
g7
ag7
ag7
ag7
ag7
ag7
ag7
ag7
ag7
ag7
ag7
ag7
ag7
ag7
ag7
ag7
ag7
ag577
ag577
atp1012
a((lp1013
S'201'
p1014
aI0
aI1
aI88
aI172
ag994
a(lp1015
g7
ag7
ag7
ag7
ag7
ag7
ag7
ag7
ag577
ag577
ag270
ag270
ag270
ag270
ag270
ag270
ag270
atp1016
a((lp1017
S'202'
p1018
aI0
aI1
aI0
aI164
ag994
a(lp1019
g577
ag270
ag270
ag270
ag270
ag270
ag270
ag270
ag270
ag270
ag270
ag270
ag270
ag270
ag270
ag270
ag270
ag270
ag270
ag270
ag270
ag270
ag270
ag270
ag270
ag270
ag270
ag270
ag270
ag270
ag270
ag270
ag270
atp1020
a((lp1021
S'203'
p1022
aI0
aI1
aI27
aI116
ag994
a(lp1023
g7
ag577
ag270
ag270
ag69
ag7
ag7
ag7
ag7
ag7
ag7
ag7
ag7
ag7
ag7
ag7
ag577
ag577
atp1024
a((lp1025
S'204'
p1026
aI0
aI1
aI0
aI144
ag994
a(lp1027
g577
ag270
ag270
ag270
ag270
ag270
ag270
ag270
ag270
ag270
ag270
ag270
ag270
ag270
ag270
ag270
ag270
ag270
ag270
ag69
ag7
ag69
ag69
ag7
ag7
ag7
ag69
ag270
ag270
atp1028
a((lp1029
S'205'
p1030
aI0
aI1
aI0
aI99
ag994
a(lp1031
g7
ag7
ag7
ag7
ag7
ag7
ag7
ag7
ag7
ag7
ag7
ag7
ag7
ag7
ag7
ag7
ag7
ag577
ag270
ag270
atp1032
a((lp1033
S'207'
p1034
aI0
aI1
aI0
aI249
ag994
a(lp1035
g7
ag577
ag577
ag270
ag270
ag270
ag270
ag270
ag270
ag270
ag270
ag270
ag270
ag270
ag270
ag270
ag270
ag270
ag270
ag270
ag270
ag270
ag270
ag270
ag270
ag270
ag270
ag270
ag69
ag7
ag7
ag7
ag7
ag7
ag7
ag7
ag7
ag7
ag7
ag7
ag7
ag7
ag577
ag270
ag7
ag7
ag7
ag7
ag577
ag270
atp1036
a((lp1037
S'208'
p1038
aI0
aI1
aI219
aI263
ag994
a(lp1039
g7
ag7
ag7
ag7
ag7
ag7
ag7
ag7
ag577
atp1040
a((lp1041
S'209'
p1042
aI0
aI1
aI0
aI134
ag994
a(lp1043
g7
ag7
ag7
ag7
ag577
ag270
ag270
ag270
ag270
ag270
ag270
ag270
ag270
ag270
ag270
ag270
ag270
ag270
ag270
ag270
ag270
ag270
ag270
ag270
ag270
ag270
ag270
atp1044
a((lp1045
S'210'
p1046
aI0
aI1
aI0
aI144
ag994
a(lp1047
g7
ag7
ag7
ag7
ag7
ag7
ag7
ag7
ag577
ag577
ag270
ag270
ag270
ag270
ag270
ag270
ag270
ag270
ag69
ag7
ag7
ag7
ag7
ag7
ag7
ag7
ag7
ag7
ag577
atp1048
a((lp1049
S'211'
p1050
aI0
aI1
aI0
aI204
ag994
a(lp1051
g7
ag7
ag7
ag7
ag7
ag7
ag7
ag7
ag7
ag7
ag7
ag7
ag7
ag7
ag7
ag7
ag7
ag7
ag7
ag7
ag7
ag7
ag577
ag270
ag270
ag270
ag270
ag270
ag270
ag270
ag270
ag270
ag270
ag270
ag270
ag270
ag270
ag270
ag270
ag270
ag270
atp1052
a((lp1053
S'212'
p1054
aI0
aI1
aI17
aI226
ag994
a(lp1055
g7
ag7
ag7
ag7
ag7
ag7
ag7
ag7
ag7
ag7
ag7
ag577
ag577
ag577
ag270
ag7
ag7
ag7
ag7
ag7
ag7
ag7
ag7
ag7
ag7
ag7
ag7
ag7
ag7
ag7
ag7
ag7
ag7
ag7
ag7
ag7
ag7
ag7
ag7
ag577
ag577
ag270
atp1056
a((lp1057
S'213'
p1058
aI0
aI1
aI79
aI303
ag994
a(lp1059
g7
ag577
ag577
ag270
ag270
ag270
ag270
ag270
ag270
ag270
ag270
ag270
ag270
ag270
ag270
ag270
ag270
ag270
ag270
ag270
ag270
ag270
ag270
ag270
ag270
ag270
ag270
ag270
ag270
ag69
ag7
ag7
ag577
ag577
ag577
ag7
ag7
ag7
ag7
ag7
ag7
ag7
ag7
ag7
ag7
atp1060
a((lp1061
S'215'
p1062
aI0
aI1
aI66
aI120
ag994
a(lp1063
g69
ag7
ag7
ag7
ag577
ag270
ag270
ag270
ag270
ag270
ag270
atp1064
a((lp1065
g1062
aI0
aI1
aI217
aI316
ag994
a(lp1066
g270
ag270
ag577
ag577
ag577
ag270
ag577
ag577
ag577
ag577
ag577
ag577
ag577
ag577
ag577
ag577
ag577
ag577
ag577
ag577
atp1067
a((lp1068
g1062
aI0
aI2
aI217
aI316
ag994
a(lp1069
g69
ag69
ag577
ag577
ag577
ag270
ag577
ag577
ag577
ag577
ag577
ag577
ag577
ag577
ag577
ag577
ag577
ag577
ag577
ag577
atp1070
a((lp1071
g1062
aI1
aI2
aI217
aI316
ag994
a(lp1072
g69
ag69
ag577
ag577
ag577
ag270
ag270
ag270
ag270
ag270
ag270
ag270
ag270
ag270
ag270
ag270
ag270
ag270
ag270
ag270
atp1073
a((lp1074
S'216'
p1075
aI0
aI1
aI0
aI259
ag994
a(lp1076
g7
ag7
ag7
ag7
ag577
ag577
ag270
ag270
ag270
ag270
ag270
ag270
ag270
ag270
ag270
ag270
ag270
ag270
ag69
ag7
ag7
ag7
ag7
ag7
ag7
ag7
ag7
ag7
ag7
ag7
ag577
ag270
ag270
ag270
ag270
ag270
ag270
ag270
ag270
ag270
ag270
ag270
ag270
ag270
ag270
ag270
ag270
ag270
ag270
ag270
ag270
ag270
atp1077
a((lp1078
S'217'
p1079
aI0
aI1
aI0
aI214
ag994
a(lp1080
g7
ag7
ag7
ag7
ag7
ag7
ag7
ag7
ag7
ag7
ag7
ag577
ag577
ag270
ag270
ag270
ag270
ag270
ag270
ag270
ag270
ag270
ag270
ag270
ag270
ag270
ag270
ag270
ag270
ag270
ag270
ag270
ag270
ag270
ag270
ag270
ag270
ag270
ag270
ag270
ag270
ag270
ag270
atp1081
a((lp1082
S'218'
p1083
aI0
aI1
aI0
aI69
ag994
a(lp1084
g7
ag7
ag7
ag7
ag577
ag270
ag270
ag270
ag270
ag270
ag270
ag270
ag270
ag270
atp1085
a((lp1086
S'219'
p1087
aI0
aI1
aI0
aI304
ag994
a(lp1088
g7
ag7
ag577
ag270
ag270
ag270
ag270
ag270
ag270
ag270
ag270
ag270
ag270
ag270
ag270
ag270
ag270
ag270
ag270
ag270
ag270
ag270
ag270
ag270
ag270
ag270
ag270
ag270
ag270
ag270
ag270
ag7
ag7
ag577
ag270
ag270
ag270
ag7
ag7
ag7
ag7
ag7
ag7
ag7
ag7
ag7
ag7
ag7
ag7
ag7
ag7
ag7
ag7
ag7
ag7
ag7
ag7
ag7
ag7
ag7
ag7
atp1089
a((lp1090
S'221'
p1091
aI0
aI1
aI60
aI334
ag994
a(lp1092
g7
ag7
ag7
ag7
ag7
ag7
ag7
ag7
ag577
ag577
ag577
ag577
ag577
ag577
ag270
ag270
ag270
ag270
ag270
ag270
ag270
ag270
ag270
ag270
ag270
ag270
ag270
ag270
ag270
ag270
ag270
ag270
ag270
ag270
ag270
ag270
ag270
ag270
ag270
ag270
ag69
ag7
ag7
ag7
ag7
ag7
ag7
ag7
ag7
ag7
ag7
ag7
ag7
ag7
ag7
atp1093
a((lp1094
S'222'
p1095
aI0
aI1
aI0
aI414
ag994
a(lp1096
g7
ag7
ag7
ag7
ag7
ag7
ag7
ag7
ag7
ag7
ag7
ag7
ag7
ag7
ag577
ag577
ag270
ag270
ag270
ag270
ag270
ag69
ag7
ag7
ag7
ag69
ag270
ag7
ag7
ag7
ag7
ag7
ag7
ag7
ag7
ag7
ag7
ag7
ag7
ag7
ag7
ag7
ag7
ag7
ag7
ag7
ag7
ag7
ag577
ag577
ag270
ag270
ag270
ag270
ag270
ag270
ag270
ag270
ag270
ag270
ag270
ag270
ag7
ag7
ag7
ag7
ag7
ag7
ag7
ag7
ag7
ag7
ag7
ag69
ag270
ag270
ag270
ag270
ag270
ag270
ag270
ag270
ag270
atp1097
a((lp1098
S'223'
p1099
aI0
aI1
aI197
aI406
ag994
a(lp1100
g7
ag7
ag7
ag7
ag7
ag7
ag577
ag270
ag577
ag7
ag7
ag7
ag7
ag7
ag7
ag7
ag577
ag270
ag270
ag270
ag270
ag270
ag7
ag7
ag7
ag7
ag7
ag7
ag7
ag7
ag7
ag7
ag7
ag7
ag7
ag7
ag7
ag7
ag7
ag270
ag270
ag270
atp1101
a((lp1102
S'224'
p1103
aI0
aI1
aI400
aI414
ag994
a(lp1104
g577
ag270
ag270
atp1105
a((lp1106
S'225'
p1107
aI0
aI1
aI0
aI104
ag994
a(lp1108
g7
ag7
ag7
ag7
ag7
ag7
ag7
ag577
ag577
ag577
ag577
ag577
ag577
ag577
ag270
ag270
ag270
ag270
ag270
ag270
ag270
atp1109
a((lp1110
S'226'
p1111
aI0
aI1
aI4
aI253
ag994
a(lp1112
g7
ag7
ag7
ag7
ag7
ag7
ag7
ag7
ag577
ag270
ag270
ag270
ag270
ag270
ag270
ag270
ag270
ag270
ag270
ag270
ag270
ag270
ag270
ag270
ag270
ag270
ag270
ag270
ag270
ag270
ag270
ag270
ag270
ag270
ag270
ag270
ag270
ag270
ag270
ag270
ag270
ag270
ag270
ag270
ag270
ag270
ag270
ag270
ag270
ag270
atp1113
a((lp1114
S'227'
p1115
aI0
aI1
aI0
aI174
ag994
a(lp1116
g7
ag7
ag7
ag7
ag7
ag7
ag7
ag7
ag7
ag7
ag7
ag7
ag7
ag7
ag7
ag7
ag577
ag577
ag577
ag270
ag270
ag270
ag270
ag270
ag270
ag270
ag270
ag270
ag270
ag270
ag270
ag270
ag69
ag7
ag7
atp1117
a((lp1118
S'228'
p1119
aI0
aI1
aI0
aI34
ag994
a(lp1120
g69
ag69
ag7
ag7
ag577
ag270
ag270
atp1121
a((lp1122
g1119
aI0
aI2
aI0
aI34
ag994
a(lp1123
g69
ag577
ag577
ag270
ag270
ag270
ag270
atp1124
a((lp1125
g1119
aI1
aI2
aI0
aI34
ag994
a(lp1126
g270
ag577
ag577
ag577
ag577
ag270
ag270
atp1127
a((lp1128
S'229'
p1129
aI0
aI1
aI0
aI34
ag994
a(lp1130
g69
ag577
ag270
ag270
ag270
ag270
ag270
atp1131
a((lp1132
S'230'
p1133
aI0
aI1
aI0
aI199
ag994
a(lp1134
g7
ag7
ag7
ag7
ag7
ag7
ag7
ag7
ag7
ag7
ag7
ag7
ag7
ag7
ag7
ag7
ag7
ag7
ag7
ag7
ag7
ag7
ag577
ag577
ag270
ag270
ag270
ag270
ag270
ag270
ag270
ag270
ag270
ag270
ag270
ag270
ag270
ag270
ag270
ag270
atp1135
a((lp1136
S'232'
p1137
aI0
aI1
aI0
aI144
ag994
a(lp1138
g577
ag577
ag577
ag577
ag270
ag270
ag270
ag270
ag270
ag270
ag270
ag270
ag7
ag577
ag270
ag270
ag270
ag270
ag270
ag270
ag270
ag270
ag270
ag270
ag270
ag270
ag270
ag270
ag270
atp1139
a((lp1140
S'233'
p1141
aI0
aI1
aI0
aI154
ag994
a(lp1142
g7
ag7
ag7
ag7
ag7
ag7
ag7
ag7
ag577
ag577
ag270
ag270
ag270
ag270
ag270
ag270
ag270
ag270
ag270
ag270
ag270
ag270
ag270
ag270
ag270
ag270
ag270
ag270
ag270
ag270
ag270
atp1143
a((lp1144
S'235'
p1145
aI0
aI1
aI0
aI59
ag994
a(lp1146
g7
ag7
ag7
ag7
ag7
ag7
ag7
ag577
ag270
ag270
ag270
ag270
atp1147
a((lp1148
S'237'
p1149
aI0
aI1
aI0
aI149
ag994
a(lp1150
g7
ag577
ag270
ag270
ag270
ag270
ag270
ag270
ag270
ag270
ag270
ag270
ag270
ag270
ag270
ag270
ag270
ag270
ag270
ag270
ag270
ag270
ag270
ag270
ag270
ag270
ag270
ag270
ag270
ag270
atp1151
a((lp1152
S'279'
p1153
aI0
aI1
aI0
aI14
ag994
a(lp1154
g577
ag270
ag577
atp1155
a((lp1156
S'284'
p1157
aI0
aI1
aI170
aI209
ag994
a(lp1158
g7
ag577
ag270
ag270
ag270
ag270
ag270
ag270
atp1159
a((lp1160
S'288'
p1161
aI0
aI1
aI13
aI227
ag994
a(lp1162
g270
ag270
ag270
ag270
ag7
ag7
ag7
ag577
ag577
ag270
ag270
ag270
ag270
ag270
ag69
ag7
ag7
ag7
ag7
ag7
ag7
ag577
ag270
ag270
ag270
ag270
ag69
ag7
ag7
ag7
ag7
ag7
ag7
ag7
ag577
ag270
ag270
ag270
ag270
ag270
ag69
ag7
ag7
atp1163
a((lp1164
S'293'
p1165
aI0
aI1
aI0
aI279
ag994
a(lp1166
g7
ag7
ag577
ag270
ag270
ag270
ag270
ag270
ag270
ag270
ag270
ag270
ag270
ag270
ag270
ag270
ag270
ag270
ag270
ag270
ag69
ag7
ag7
ag7
ag7
ag270
ag270
ag270
ag270
ag270
ag270
ag270
ag69
ag7
ag7
ag7
ag7
ag7
ag577
ag577
ag270
ag270
ag270
ag270
ag270
ag270
ag270
ag270
ag270
ag270
ag270
ag270
ag270
ag270
ag270
ag270
atp1167
a((lp1168
S'294'
p1169
aI0
aI1
aI0
aI274
ag994
a(lp1170
g7
ag577
ag270
ag270
ag270
ag270
ag270
ag270
ag270
ag270
ag270
ag270
ag270
ag270
ag270
ag270
ag270
ag270
ag270
ag270
ag270
ag270
ag270
ag270
ag270
ag270
ag270
ag270
ag270
ag270
ag69
ag7
ag7
ag7
ag7
ag7
ag7
ag7
ag577
ag270
ag270
ag270
ag270
ag270
ag270
ag270
ag270
ag270
ag270
ag270
ag270
ag270
ag270
ag270
ag270
atp1171
a((lp1172
S'296'
p1173
aI0
aI1
aI0
aI44
ag994
a(lp1174
g7
ag7
ag7
ag7
ag577
ag270
ag270
ag270
ag270
atp1175
a((lp1176
S'298'
p1177
aI0
aI1
aI0
aI169
ag994
a(lp1178
g7
ag7
ag7
ag7
ag7
ag7
ag7
ag7
ag7
ag7
ag7
ag7
ag7
ag7
ag7
ag7
ag7
ag7
ag7
ag7
ag7
ag7
ag7
ag7
ag7
ag577
ag270
ag270
ag270
ag270
ag270
ag270
ag270
ag270
atp1179
a((lp1180
S'29'
p1181
aI2
aI3
aI337
aI396
ag994
a(lp1182
g7
ag7
ag7
ag7
ag7
ag577
ag577
ag577
ag577
ag577
ag577
ag577
atp1183
a((lp1184
S'300'
p1185
aI0
aI1
aI0
aI99
ag994
a(lp1186
g7
ag7
ag577
ag270
ag577
ag7
ag7
ag7
ag7
ag7
ag69
ag270
ag270
ag270
ag270
ag270
ag270
ag270
ag270
ag270
atp1187
a((lp1188
S'301'
p1189
aI0
aI1
aI0
aI194
ag994
a(lp1190
g7
ag7
ag7
ag7
ag7
ag7
ag7
ag7
ag7
ag7
ag7
ag7
ag7
ag7
ag7
ag7
ag7
ag7
ag7
ag7
ag7
ag577
ag270
ag270
ag270
ag270
ag270
ag270
ag7
ag7
ag7
ag7
ag7
ag7
ag577
ag270
ag270
ag270
ag270
atp1191
a((lp1192
g839
aI0
aI1
aI21
aI55
ag994
a(lp1193
g7
ag7
ag7
ag577
ag270
ag577
ag270
atp1194
asS'JointAtt'
p1195
(lp1196
((lp1197
S'100'
p1198
aI0
aI1
aI0
aI29
aS'JointAtt'
p1199
a(lp1200
g270
ag270
ag270
ag270
ag270
ag270
atp1201
a((lp1202
g1198
aI0
aI2
aI0
aI29
ag1199
a(lp1203
g270
ag270
ag270
ag270
ag270
ag270
atp1204
a((lp1205
g1198
aI1
aI2
aI0
aI69
ag1199
a(lp1206
g270
ag270
ag270
ag270
ag270
ag270
ag270
ag270
ag270
ag270
ag69
ag7
ag7
ag7
atp1207
a((lp1208
g1198
aI1
aI2
aI31
aI70
ag1199
a(lp1209
g270
ag270
ag270
ag270
ag69
ag7
ag7
ag7
atp1210
a((lp1211
S'101'
p1212
aI0
aI1
aI0
aI179
ag1199
a(lp1213
g270
ag270
ag69
ag7
ag7
ag7
ag7
ag7
ag7
ag269
ag69
ag7
ag7
ag7
ag7
ag69
ag269
ag269
ag269
ag269
ag269
ag269
ag269
ag269
ag269
ag269
ag69
aS'refer'
p1214
ag1214
ag1214
ag1214
ag1214
ag7
ag69
ag269
ag269
atp1215
a((lp1216
S'102'
p1217
aI0
aI1
aI0
aI29
ag1199
a(lp1218
g270
ag270
ag270
ag270
ag270
ag270
atp1219
a((lp1220
g1217
aI0
aI1
aI37
aI106
ag1199
a(lp1221
g270
ag270
ag270
ag270
ag270
ag270
ag270
ag270
ag270
ag270
ag270
ag270
ag270
ag270
atp1222
a((lp1223
S'103'
p1224
aI0
aI2
aI134
aI163
ag1199
a(lp1225
g270
ag270
ag270
ag270
ag270
ag270
atp1226
a((lp1227
S'106'
p1228
aI0
aI1
aI0
aI59
ag1199
a(lp1229
g7
ag7
ag577
ag270
ag270
ag69
ag7
ag7
ag7
ag7
ag69
ag269
atp1230
a((lp1231
S'109'
p1232
aI0
aI1
aI0
aI39
ag1199
a(lp1233
g270
ag270
ag270
ag270
ag270
ag270
ag270
ag270
atp1234
a((lp1235
g1232
aI0
aI1
aI45
aI179
ag1199
a(lp1236
g270
ag270
ag270
ag270
ag270
ag270
ag270
ag270
ag270
ag270
ag270
ag270
ag270
ag270
ag69
ag7
ag69
ag270
ag270
ag270
ag270
ag270
ag270
ag270
ag270
ag270
ag270
atp1237
a((lp1238
S'10'
p1239
aI0
aI1
aI0
aI464
ag1199
a(lp1240
g7
ag7
ag7
ag7
ag7
ag270
ag270
ag270
ag270
ag270
ag270
ag270
ag7
ag7
ag7
ag7
ag7
ag7
ag7
ag7
ag7
ag7
ag7
ag7
ag269
ag269
ag269
ag269
ag269
ag269
ag269
ag269
ag269
ag1214
ag270
ag270
ag270
ag1214
ag577
ag577
ag577
ag577
ag577
ag577
ag577
ag577
ag577
ag577
ag577
ag577
ag69
ag269
ag269
ag269
ag269
ag269
ag269
ag269
ag269
ag269
ag269
ag269
ag269
ag269
ag269
ag269
ag269
ag269
ag69
ag7
ag7
ag7
ag69
ag269
ag269
ag269
ag269
ag269
ag269
ag269
ag269
ag269
ag269
ag269
ag269
ag269
ag269
ag269
ag269
ag269
ag269
ag269
ag269
atp1241
a((lp1242
S'115'
p1243
aI1
aI2
aI192
aI201
ag1199
a(lp1244
g270
ag270
atp1245
a((lp1246
S'116'
p1247
aI0
aI1
aI0
aI184
ag1199
a(lp1248
g270
ag270
ag270
ag270
ag270
ag270
ag270
ag270
ag270
ag270
ag270
ag270
ag270
ag270
ag270
ag270
ag69
ag7
ag7
ag7
ag69
ag270
ag270
ag270
ag270
ag270
ag270
ag270
ag270
ag270
ag270
ag270
ag270
ag270
ag270
ag270
ag270
atp1249
a((lp1250
S'118'
p1251
aI0
aI2
aI183
aI252
ag1199
a(lp1252
g270
ag270
ag270
ag270
ag270
ag270
ag270
ag270
ag270
ag270
ag270
ag270
ag270
ag270
atp1253
a((lp1254
g1251
aI0
aI2
aI299
aI378
ag1199
a(lp1255
g270
ag270
ag270
ag270
ag270
ag270
ag270
ag270
ag270
ag270
ag270
ag270
ag270
ag270
ag270
ag270
atp1256
a((lp1257
S'11'
p1258
aI0
aI1
aI0
aI209
ag1199
a(lp1259
g1214
ag1214
ag1214
ag269
ag269
ag269
ag269
ag577
ag577
ag270
ag577
ag7
ag7
ag7
ag7
ag69
ag269
ag269
ag69
ag7
ag69
ag269
ag269
ag269
ag269
ag269
ag269
ag269
ag269
ag269
ag269
ag269
ag269
ag269
ag269
ag269
ag269
ag269
ag269
ag269
ag69
ag7
atp1260
a((lp1261
S'122'
p1262
aI0
aI1
aI172
aI176
ag1199
a(lp1263
g270
atp1264
a((lp1265
g1262
aI0
aI1
aI186
aI220
ag1199
a(lp1266
g270
ag270
ag270
ag270
ag270
ag270
ag270
atp1267
a((lp1268
S'129'
p1269
aI0
aI1
aI0
aI524
ag1199
a(lp1270
g270
ag270
ag270
ag270
ag270
ag270
ag270
ag270
ag270
ag270
ag270
ag270
ag270
ag270
ag270
ag270
ag270
ag270
ag270
ag270
ag270
ag270
ag270
ag270
ag270
ag270
ag270
ag270
ag270
ag270
ag270
ag270
ag7
ag7
ag7
ag7
ag7
ag7
ag270
ag270
ag7
ag7
ag274
ag274
ag274
ag274
ag274
ag274
ag274
ag274
ag274
ag274
ag274
ag274
ag274
ag274
ag274
ag274
ag274
ag274
ag274
ag274
ag274
ag274
ag274
ag274
ag274
ag274
ag274
ag274
ag274
ag274
ag274
ag274
ag270
ag270
ag270
ag270
ag270
ag270
ag7
ag7
ag7
ag7
ag7
ag7
ag270
ag270
ag270
ag270
ag7
ag7
ag270
ag270
ag7
ag7
ag7
ag7
ag7
ag7
ag270
ag270
ag270
ag270
ag270
atp1271
a((lp1272
S'12'
p1273
aI0
aI1
aI141
aI530
ag1199
a(lp1274
g269
ag69
ag1214
ag270
ag270
ag270
ag270
ag270
ag270
ag270
ag270
ag270
ag270
ag270
ag270
ag270
ag270
ag270
ag270
ag270
ag7
ag7
ag69
ag270
ag270
ag270
ag270
ag270
ag270
ag270
ag270
ag270
ag270
ag270
ag270
ag270
ag270
ag270
ag270
ag270
ag270
ag270
ag270
ag270
ag270
ag270
ag270
ag270
ag270
ag270
ag270
ag270
ag270
ag270
ag270
ag270
ag270
ag270
ag270
ag270
ag270
ag270
ag270
ag270
ag270
ag270
ag270
ag270
ag270
ag270
ag270
ag270
ag270
ag270
ag270
ag69
ag7
ag7
atp1275
a((lp1276
S'132'
p1277
aI0
aI1
aI0
aI184
ag1199
a(lp1278
g270
ag270
ag270
ag270
ag270
ag270
ag270
ag270
ag270
ag270
ag577
ag577
ag270
ag270
ag270
ag270
ag270
ag270
ag270
ag270
ag270
ag270
ag270
ag270
ag270
ag69
ag7
ag7
ag270
ag270
ag270
ag270
ag270
ag69
ag7
ag7
ag7
atp1279
a((lp1280
S'136'
p1281
aI0
aI1
aI0
aI99
ag1199
a(lp1282
g270
ag270
ag270
ag270
ag270
ag270
ag270
ag270
ag270
ag270
ag270
ag270
ag270
ag270
ag270
ag270
ag270
ag270
ag7
ag7
atp1283
a((lp1284
S'13'
p1285
aI0
aI1
aI0
aI419
ag1199
a(lp1286
g7
ag69
ag269
ag269
ag269
ag269
ag269
ag269
ag69
ag1214
ag1214
ag1214
ag270
ag270
ag270
ag270
ag270
ag270
ag270
ag270
ag270
ag270
ag270
ag270
ag270
ag270
ag270
ag270
ag270
ag270
ag270
ag270
ag270
ag270
ag270
ag69
ag7
ag7
ag69
ag7
ag69
ag270
ag270
ag270
ag270
ag270
ag270
ag270
ag270
ag270
ag270
ag270
ag270
ag270
ag270
ag270
ag270
ag270
ag270
ag270
ag270
ag270
ag270
ag270
ag270
ag270
ag270
ag270
ag270
ag270
ag270
ag270
ag270
ag270
ag270
ag270
ag270
ag270
ag270
ag270
ag69
ag7
ag7
ag7
atp1287
a((lp1288
S'147'
p1289
aI0
aI1
aI30
aI209
ag1199
a(lp1290
g270
ag270
ag270
ag270
ag270
ag270
ag270
ag270
ag270
ag270
ag269
ag269
ag269
ag269
ag7
ag7
ag270
ag270
ag270
ag270
ag270
ag270
ag270
ag270
ag7
ag7
ag7
ag7
ag270
ag270
ag270
ag270
ag270
ag270
ag270
ag270
atp1291
a((lp1292
S'14'
p1293
aI0
aI1
aI0
aI279
ag1199
a(lp1294
g7
ag7
ag7
ag577
ag270
ag270
ag270
ag7
ag7
ag7
ag7
ag7
ag269
ag269
ag269
ag1214
ag1214
ag1214
ag270
ag270
ag1214
ag1214
ag1214
ag1214
ag1214
ag1214
ag1214
ag1214
ag1214
ag1214
ag1214
ag1214
ag269
ag269
ag269
ag269
ag269
ag269
ag269
ag269
ag269
ag269
ag269
ag269
ag269
ag269
ag269
ag269
ag269
ag269
ag269
ag269
ag269
ag269
ag269
ag269
atp1295
a((lp1296
S'150'
p1297
aI0
aI1
aI0
aI219
ag1199
a(lp1298
g270
ag270
ag270
ag270
ag270
ag270
ag270
ag270
ag270
ag270
ag7
ag7
ag7
ag7
ag7
ag7
ag7
ag7
ag7
ag7
ag7
ag7
ag7
ag7
ag7
ag7
ag7
ag7
ag7
ag7
ag270
ag270
ag270
ag270
ag7
ag7
ag7
ag7
ag270
ag270
ag270
ag270
ag270
ag270
atp1299
a((lp1300
S'156'
p1301
aI0
aI1
aI60
aI229
ag1199
a(lp1302
g7
ag7
ag7
ag7
ag270
ag270
ag270
ag270
ag270
ag270
ag270
ag270
ag270
ag270
ag270
ag270
ag270
ag270
ag270
ag270
ag270
ag270
ag270
ag270
ag270
ag270
ag270
ag270
ag7
ag7
ag7
ag7
ag7
ag7
atp1303
a((lp1304
S'15'
p1305
aI0
aI1
aI0
aI99
ag1199
a(lp1306
g1214
ag1214
ag1214
ag1214
ag1214
ag1214
ag1214
ag1214
ag1214
ag270
ag270
ag1214
ag577
ag577
ag577
ag69
ag269
ag269
ag269
ag269
atp1307
a((lp1308
S'161'
p1309
aI0
aI1
aI0
aI139
ag1199
a(lp1310
g7
ag7
ag577
ag270
ag270
ag69
ag7
ag7
ag269
ag269
ag269
ag269
ag269
ag269
ag269
ag69
ag7
ag69
ag270
ag270
ag270
ag270
ag270
ag270
ag270
ag270
ag270
ag270
atp1311
a((lp1312
S'165'
p1313
aI0
aI1
aI0
aI124
ag1199
a(lp1314
g7
ag7
ag7
ag7
ag7
ag7
ag7
ag7
ag7
ag69
ag270
ag270
ag270
ag270
ag270
ag270
ag270
ag270
ag69
ag7
ag7
ag7
ag7
ag69
ag69
atp1315
a((lp1316
S'16'
p1317
aI0
aI1
aI0
aI134
ag1199
a(lp1318
g270
ag270
ag69
ag69
ag269
ag269
ag269
ag269
ag269
ag69
ag69
ag270
ag270
ag270
ag270
ag69
ag69
ag69
ag270
ag270
ag270
ag270
ag270
ag270
ag270
ag270
ag270
atp1319
a((lp1320
g1317
aI1
aI2
aI139
aI158
ag1199
a(lp1321
g7
ag7
ag69
ag269
atp1322
a((lp1323
g1317
aI0
aI1
aI160
aI174
ag1199
a(lp1324
g269
ag269
ag269
atp1325
a((lp1326
g1317
aI1
aI2
aI179
aI183
ag1199
a(lp1327
g269
atp1328
a((lp1329
S'170'
p1330
aI0
aI1
aI20
aI59
ag1199
a(lp1331
g7
ag1214
ag1214
ag1214
ag270
ag270
ag270
ag270
atp1332
a((lp1333
S'172'
p1334
aI0
aI1
aI58
aI272
ag1199
a(lp1335
g269
ag269
ag1214
ag1214
ag1214
ag7
ag7
ag69
ag270
ag270
ag270
ag270
ag270
ag270
ag270
ag270
ag270
ag270
ag270
ag69
ag7
ag7
ag69
ag270
ag270
ag69
ag7
ag7
ag7
ag7
ag7
ag7
ag7
ag7
ag7
ag7
ag7
ag7
ag7
ag69
ag269
ag269
ag269
atp1336
a((lp1337
S'173'
p1338
aI0
aI1
aI0
aI214
ag1199
a(lp1339
g270
ag7
ag7
ag270
ag270
ag270
ag270
ag270
ag270
ag270
ag270
ag270
ag270
ag270
ag270
ag270
ag69
ag7
ag7
ag7
ag269
ag269
ag269
ag269
ag269
ag269
ag269
ag269
ag269
ag69
ag7
ag7
ag7
ag7
ag270
ag270
ag270
ag270
ag270
ag270
ag270
ag270
ag270
atp1340
a((lp1341
S'175'
p1342
aI0
aI1
aI16
aI25
ag1199
a(lp1343
g270
ag270
atp1344
a((lp1345
S'177'
p1346
aI0
aI1
aI0
aI74
ag1199
a(lp1347
g69
ag7
ag7
ag7
ag7
ag7
ag7
ag7
ag69
ag270
ag270
ag270
ag270
ag270
ag270
atp1348
a((lp1349
S'178'
p1350
aI0
aI1
aI0
aI119
ag1199
a(lp1351
g269
ag1214
ag1214
ag270
ag270
ag270
ag270
ag270
ag270
ag270
ag270
ag270
ag270
ag69
ag7
ag7
ag7
ag7
ag69
ag269
ag269
ag269
ag269
ag269
atp1352
a((lp1353
S'17'
p1354
aI0
aI1
aI0
aI1044
ag1199
a(lp1355
g7
ag1214
ag270
ag270
ag1214
ag7
ag7
ag7
ag7
ag7
ag69
ag269
ag269
ag269
ag269
ag269
ag269
ag269
ag269
ag269
ag69
ag1214
ag1214
ag1214
ag1214
ag1214
ag1214
ag1214
ag1214
ag1214
ag1214
ag1214
ag1214
ag270
ag270
ag1214
ag1214
ag1214
ag270
ag270
ag270
ag270
ag270
ag270
ag270
ag1214
ag577
ag1214
ag270
ag270
ag270
ag1214
ag7
ag7
ag7
ag7
ag7
ag7
ag7
ag69
ag270
ag270
ag69
ag7
ag7
ag7
ag7
ag7
ag7
ag69
ag270
ag270
ag270
ag270
ag270
ag270
ag270
ag69
ag7
ag7
ag7
ag7
ag69
ag270
ag270
ag270
ag270
ag270
ag270
ag270
ag270
ag270
ag270
ag270
ag270
ag270
ag270
ag270
ag270
ag270
ag270
ag270
ag270
ag270
ag270
ag270
ag270
ag270
ag270
ag270
ag69
ag7
ag7
ag7
ag7
ag7
ag7
ag7
ag7
ag7
ag7
ag7
ag7
ag7
ag7
ag7
ag7
ag7
ag69
ag269
ag269
ag269
ag269
ag269
ag269
ag269
ag269
ag269
ag269
ag269
ag269
ag269
ag269
ag269
ag269
ag269
ag269
ag1214
ag1214
ag1214
ag1214
ag1214
ag1214
ag69
ag269
ag269
ag269
ag7
ag7
ag69
ag269
ag269
ag269
ag269
ag269
ag269
ag269
ag269
ag269
ag269
ag69
ag7
ag7
ag69
ag269
ag269
ag269
ag269
ag269
ag269
ag269
ag69
ag577
ag577
ag270
ag270
ag270
ag270
ag270
ag577
ag577
ag270
ag270
ag270
ag270
ag270
ag270
ag577
ag577
ag269
ag269
ag269
ag269
ag269
ag269
ag274
ag274
ag274
ag274
atp1356
a((lp1357
S'181'
p1358
aI0
aI1
aI306
aI470
ag1199
a(lp1359
g1214
ag1214
ag1214
ag1214
ag270
ag270
ag270
ag270
ag270
ag7
ag7
ag69
ag7
ag7
ag7
ag7
ag7
ag7
ag7
ag7
ag7
ag7
ag7
ag7
ag7
ag7
ag7
ag7
ag7
ag7
ag7
ag7
ag7
atp1360
a((lp1361
S'183'
p1362
aI0
aI1
aI38
aI102
ag1199
a(lp1363
g7
ag270
ag270
ag270
ag270
ag270
ag270
ag270
ag270
ag270
ag270
ag270
ag270
atp1364
a((lp1365
S'186'
p1366
aI0
aI1
aI400
aI454
ag1199
a(lp1367
g270
ag270
ag270
ag270
ag270
ag270
ag7
ag7
ag69
ag270
ag270
atp1368
a((lp1369
g1366
aI0
aI1
aI492
aI866
ag1199
a(lp1370
g270
ag270
ag69
ag7
ag7
ag7
ag7
ag7
ag7
ag7
ag7
ag7
ag69
ag270
ag69
ag7
ag270
ag270
ag270
ag69
ag7
ag7
ag69
ag270
ag270
ag270
ag270
ag270
ag270
ag270
ag270
ag7
ag7
ag7
ag7
ag69
ag270
ag270
ag270
ag270
ag69
ag7
ag7
ag7
ag7
ag69
ag270
ag270
ag7
ag7
ag7
ag7
ag7
ag7
ag7
ag7
ag7
ag7
ag7
ag7
ag69
ag69
ag7
ag7
ag7
ag7
ag7
ag7
ag7
ag7
ag7
ag7
ag7
ag7
ag7
atp1371
a((lp1372
S'187'
p1373
aI0
aI1
aI0
aI674
ag1199
a(lp1374
g69
ag7
ag7
ag69
ag269
ag269
ag269
ag269
ag269
ag269
ag269
ag269
ag269
ag69
ag7
ag7
ag7
ag7
ag7
ag7
ag7
ag7
ag7
ag7
ag7
ag69
ag269
ag69
ag7
ag7
ag7
ag270
ag270
ag270
ag270
ag270
ag270
ag270
ag270
ag7
ag7
ag7
ag7
ag7
ag7
ag7
ag7
ag7
ag7
ag69
ag270
ag270
ag270
ag270
ag270
ag270
ag69
ag7
ag7
ag7
ag7
ag7
ag7
ag7
ag7
ag7
ag7
ag7
ag7
ag7
ag7
ag7
ag7
ag7
ag69
ag269
ag269
ag269
ag269
ag269
ag69
ag69
ag69
ag7
ag7
ag69
ag269
ag69
ag7
ag7
ag7
ag69
ag270
ag270
ag270
ag270
ag69
ag7
ag7
ag7
ag7
ag7
ag69
ag269
ag269
ag269
ag269
ag269
ag269
ag269
ag269
ag269
ag269
ag269
ag269
ag269
ag269
ag269
ag269
ag269
ag269
ag269
ag269
ag269
ag269
ag269
ag269
ag269
ag269
ag269
ag269
ag269
ag269
ag269
ag269
atp1375
a((lp1376
S'189'
p1377
aI0
aI1
aI58
aI472
ag1199
a(lp1378
g270
ag270
ag270
ag270
ag270
ag270
ag270
ag69
ag7
ag7
ag7
ag7
ag7
ag7
ag7
ag7
ag7
ag7
ag7
ag7
ag7
ag7
ag7
ag7
ag7
ag7
ag7
ag7
ag7
ag7
ag7
ag69
ag269
ag269
ag269
ag269
ag269
ag269
ag69
ag1214
ag1214
ag1214
ag1214
ag1214
ag270
ag270
ag270
ag270
ag577
ag69
ag269
ag269
ag269
ag269
ag269
ag269
ag269
ag269
ag269
ag269
ag269
ag269
ag269
ag269
ag269
ag269
ag269
ag7
ag7
ag69
ag270
ag270
ag270
ag270
ag270
ag270
ag270
ag270
ag270
ag7
ag7
ag7
ag69
atp1379
a((lp1380
S'18'
p1381
aI0
aI1
aI0
aI229
ag1199
a(lp1382
g7
ag69
ag270
ag270
ag270
ag270
ag270
ag270
ag270
ag270
ag270
ag270
ag270
ag270
ag270
ag270
ag270
ag270
ag270
ag270
ag270
ag270
ag270
ag270
ag270
ag270
ag270
ag69
ag7
ag7
ag69
ag269
ag269
ag269
ag269
ag269
ag1214
ag1214
ag1214
ag1214
ag1214
ag1214
ag1214
ag1214
ag1214
ag577
atp1383
a((lp1384
S'190'
p1385
aI0
aI1
aI181
aI280
ag1199
a(lp1386
g269
ag1214
ag1214
ag1214
ag69
ag269
ag269
ag269
ag269
ag577
ag577
ag577
ag577
ag269
ag269
ag269
ag269
ag269
ag7
ag7
atp1387
a((lp1388
S'196'
p1389
aI1
aI2
aI430
aI499
ag1199
a(lp1390
g270
ag270
ag270
ag270
ag270
ag270
ag270
ag270
ag270
ag270
ag270
ag270
ag270
ag270
atp1391
a((lp1392
S'197'
p1393
aI0
aI1
aI0
aI454
ag1199
a(lp1394
g269
ag1214
ag1214
ag1214
ag1214
ag1214
ag1214
ag269
ag269
ag577
ag577
ag270
ag270
ag270
ag270
ag270
ag270
ag270
ag270
ag270
ag270
ag270
ag270
ag270
ag69
ag7
ag7
ag7
ag7
ag7
ag69
ag270
ag270
ag270
ag270
ag270
ag7
ag7
ag69
ag270
ag270
ag270
ag270
ag270
ag270
ag270
ag270
ag270
ag69
ag7
ag7
ag7
ag7
ag7
ag7
ag69
ag270
ag69
ag69
ag270
ag270
ag270
ag69
ag7
ag7
ag7
ag7
ag7
ag7
ag7
ag7
ag7
ag7
ag7
ag7
ag7
ag7
ag7
ag7
ag7
ag69
ag269
ag269
ag69
ag7
ag7
ag7
ag7
ag7
ag7
ag7
atp1395
a((lp1396
S'19'
p1397
aI0
aI1
aI0
aI4
ag1199
a(lp1398
g270
atp1399
a((lp1400
g1397
aI0
aI1
aI96
aI365
ag1199
a(lp1401
g69
ag269
ag1214
ag1214
ag1214
ag1214
ag1214
ag1214
ag1214
ag1214
ag1214
ag577
ag577
ag577
ag269
ag269
ag269
ag269
ag269
ag269
ag269
ag69
ag7
ag7
ag7
ag69
ag270
ag270
ag270
ag270
ag270
ag270
ag270
ag69
ag7
ag7
ag69
ag269
ag269
ag1214
ag1214
ag270
ag270
ag270
ag270
ag270
ag270
ag7
ag7
ag7
ag7
ag7
ag69
ag270
atp1402
a((lp1403
S'1'
p1404
aI0
aI1
aI0
aI384
ag1199
a(lp1405
g270
ag69
ag7
ag269
ag269
ag269
ag269
ag69
ag1214
ag1214
ag1214
ag1214
ag1214
ag1214
ag1214
ag1214
ag1214
ag1214
ag1214
ag1214
ag1214
ag1214
ag269
ag269
ag269
ag269
ag269
ag269
ag269
ag7
ag1214
ag1214
ag1214
ag1214
ag1214
ag1214
ag1214
ag1214
ag1214
ag1214
ag1214
ag1214
ag1214
ag1214
ag1214
ag1214
ag1214
ag1214
ag1214
ag1214
ag1214
ag1214
ag1214
ag1214
ag1214
ag69
ag269
ag269
ag269
ag269
ag269
ag269
ag269
ag269
ag69
ag1214
ag1214
ag1214
ag270
ag1214
ag577
ag577
ag577
ag577
ag577
ag577
ag577
atp1406
a((lp1407
S'20'
p1408
aI0
aI1
aI0
aI174
ag1199
a(lp1409
g269
ag269
ag269
ag269
ag69
ag270
ag270
ag270
ag270
ag270
ag270
ag270
ag270
ag270
ag270
ag270
ag270
ag270
ag270
ag270
ag270
ag270
ag270
ag270
ag270
ag270
ag69
ag69
ag69
ag270
ag270
ag270
ag270
ag270
ag270
atp1410
a((lp1411
S'211'
p1412
aI0
aI1
aI205
aI479
ag1199
a(lp1413
g69
ag7
ag7
ag7
ag69
ag270
ag270
ag270
ag270
ag270
ag270
ag270
ag270
ag270
ag270
ag270
ag270
ag270
ag270
ag270
ag270
ag270
ag270
ag270
ag270
ag270
ag270
ag270
ag270
ag270
ag69
ag7
ag7
ag7
ag7
ag7
ag7
ag7
ag7
ag7
ag7
ag7
ag7
ag7
ag7
ag7
ag7
ag7
ag7
ag7
ag7
ag7
ag69
ag270
ag270
atp1414
a((lp1415
S'214'
p1416
aI0
aI1
aI100
aI229
ag1199
a(lp1417
g69
ag7
ag7
ag7
ag7
ag7
ag7
ag7
ag7
ag7
ag69
ag270
ag270
ag270
ag270
ag270
ag270
ag270
ag69
ag7
ag7
ag7
ag270
ag69
ag7
ag69
atp1418
a((lp1419
S'215'
p1420
aI0
aI1
aI125
aI214
ag1199
a(lp1421
g69
ag7
ag7
ag269
ag269
ag7
ag7
ag7
ag7
ag7
ag7
ag7
ag7
ag270
ag270
ag270
ag270
ag270
atp1422
a((lp1423
S'21'
p1424
aI0
aI1
aI0
aI429
ag1199
a(lp1425
g7
ag7
ag7
ag69
ag270
ag270
ag270
ag270
ag270
ag270
ag270
ag270
ag270
ag270
ag270
ag270
ag270
ag270
ag270
ag270
ag270
ag270
ag270
ag270
ag270
ag270
ag270
ag270
ag270
ag270
ag270
ag270
ag270
ag270
ag270
ag270
ag270
ag270
ag270
ag270
ag270
ag270
ag270
ag270
ag270
ag270
ag270
ag270
ag270
ag270
ag270
ag270
ag270
ag270
ag270
ag270
ag270
ag270
ag270
ag69
ag7
ag69
ag270
ag270
ag270
ag270
ag270
ag270
ag270
ag270
ag270
ag270
ag270
ag270
ag270
ag270
ag270
ag270
ag270
ag270
ag270
ag270
ag270
ag270
ag270
ag270
atp1426
a((lp1427
S'221'
p1428
aI0
aI1
aI31
aI45
ag1199
a(lp1429
g270
ag270
ag270
atp1430
a((lp1431
S'224'
p1432
aI0
aI1
aI416
aI485
ag1199
a(lp1433
g270
ag270
ag270
ag270
ag270
ag270
ag270
ag270
ag270
ag270
ag270
ag270
ag270
ag270
atp1434
a((lp1435
S'225'
p1436
aI0
aI1
aI107
aI221
ag1199
a(lp1437
g69
ag7
ag69
ag270
ag270
ag69
ag7
ag7
ag7
ag7
ag7
ag7
ag7
ag7
ag7
ag7
ag7
ag7
ag7
ag7
ag7
ag7
ag7
atp1438
a((lp1439
S'228'
p1440
aI0
aI2
aI36
aI160
ag1199
a(lp1441
g270
ag270
ag270
ag270
ag270
ag270
ag270
ag270
ag270
ag69
ag69
ag69
ag69
ag69
ag69
ag270
ag270
ag270
ag270
ag270
ag270
ag270
ag270
ag270
ag270
atp1442
a((lp1443
g1440
aI1
aI2
aI36
aI160
ag1199
a(lp1444
g270
ag270
ag270
ag270
ag270
ag270
ag270
ag270
ag270
ag270
ag270
ag270
ag270
ag270
ag270
ag270
ag69
ag69
ag69
ag69
ag270
ag270
ag270
ag270
ag270
atp1445
a((lp1446
S'234'
p1447
aI0
aI1
aI162
aI251
ag1199
a(lp1448
g7
ag7
ag7
ag7
ag7
ag69
ag69
ag7
ag7
ag7
ag270
ag270
ag270
ag270
ag270
ag270
ag270
ag270
atp1449
a((lp1450
S'235'
p1451
aI0
aI1
aI124
aI208
ag1199
a(lp1452
g270
ag270
ag270
ag270
ag270
ag270
ag270
ag270
ag270
ag270
ag270
ag270
ag270
ag270
ag270
ag270
ag270
atp1453
a((lp1454
S'23'
p1455
aI0
aI1
aI0
aI654
ag1199
a(lp1456
g69
ag270
ag270
ag270
ag270
ag270
ag69
ag7
ag69
ag269
ag69
ag7
ag7
ag7
ag7
ag7
ag7
ag69
ag270
ag270
ag270
ag270
ag270
ag270
ag270
ag270
ag270
ag270
ag270
ag270
ag270
ag270
ag270
ag270
ag270
ag69
ag69
ag269
ag269
ag269
ag269
ag69
ag69
ag270
ag270
ag270
ag270
ag270
ag270
ag270
ag270
ag270
ag270
ag270
ag270
ag270
ag270
ag270
ag270
ag270
ag69
ag7
ag7
ag270
ag270
ag270
ag270
ag270
ag270
ag270
ag270
ag270
ag270
ag270
ag270
ag69
ag69
ag269
ag69
ag7
ag7
ag69
ag270
ag270
ag270
ag270
ag270
ag270
ag270
ag270
ag270
ag270
ag270
ag270
ag270
ag270
ag270
ag270
ag270
ag270
ag270
ag270
ag270
ag270
ag270
ag270
ag270
ag270
ag270
ag270
ag270
ag270
ag270
ag270
ag270
ag270
ag270
ag270
ag270
ag270
ag270
ag69
ag7
ag69
ag269
ag69
ag7
ag69
ag270
ag270
ag270
atp1457
a((lp1458
S'243'
p1459
aI0
aI1
aI110
aI209
ag1199
a(lp1460
g270
ag270
ag270
ag270
ag270
ag270
ag270
ag270
ag270
ag270
ag270
ag270
ag270
ag270
ag270
ag270
ag270
ag270
ag270
ag270
atp1461
a((lp1462
g1459
aI0
aI1
aI320
aI329
ag1199
a(lp1463
g270
ag270
atp1464
a((lp1465
S'247'
p1466
aI0
aI1
aI470
aI494
ag1199
a(lp1467
g270
ag270
ag270
ag270
ag270
atp1468
a((lp1469
S'248'
p1470
aI0
aI1
aI170
aI269
ag1199
a(lp1471
g270
ag270
ag270
ag270
ag270
ag270
ag270
ag270
ag270
ag270
ag270
ag270
ag270
ag270
ag270
ag270
ag270
ag270
ag270
ag270
atp1472
a((lp1473
S'24'
p1474
aI0
aI1
aI0
aI44
ag1199
a(lp1475
g270
ag270
ag270
ag270
ag270
ag270
ag270
ag270
ag270
atp1476
a((lp1477
S'250'
p1478
aI0
aI1
aI0
aI39
ag1199
a(lp1479
g270
ag270
ag270
ag270
ag270
ag270
ag270
ag270
atp1480
a((lp1481
S'251'
p1482
aI0
aI1
aI350
aI469
ag1199
a(lp1483
g270
ag270
ag270
ag270
ag270
ag270
ag1214
ag1214
ag1214
ag1214
ag1214
ag1214
ag1214
ag1214
ag1214
ag1214
ag1214
ag1214
ag270
ag270
ag270
ag270
ag270
ag270
atp1484
a((lp1485
S'25'
p1486
aI0
aI1
aI100
aI184
ag1199
a(lp1487
g7
ag1214
ag1214
ag1214
ag1214
ag1214
ag1214
ag270
ag270
ag270
ag270
ag270
ag1214
ag7
ag7
ag7
ag7
atp1488
a((lp1489
S'265'
p1490
aI0
aI1
aI0
aI189
ag1199
a(lp1491
g269
ag269
ag269
ag1214
ag1214
ag1214
ag1214
ag1214
ag1214
ag1214
ag1214
ag1214
ag1214
ag1214
ag1214
ag1214
ag1214
ag270
ag1214
ag7
ag69
ag270
ag270
ag270
ag270
ag270
ag270
ag270
ag270
ag270
ag270
ag270
ag270
ag270
ag270
ag270
ag270
ag270
atp1492
a((lp1493
g1490
aI0
aI1
aI203
aI302
ag1199
a(lp1494
g7
ag270
ag270
ag270
ag270
ag270
ag270
ag270
ag270
ag270
ag270
ag270
ag270
ag270
ag270
ag69
ag7
ag7
ag7
ag69
atp1495
a((lp1496
S'266'
p1497
aI0
aI1
aI0
aI114
ag1199
a(lp1498
g69
ag269
ag269
ag269
ag269
ag269
ag269
ag269
ag269
ag269
ag269
ag269
ag269
ag1214
ag1214
ag1214
ag1214
ag1214
ag1214
ag1214
ag1214
ag1214
ag69
atp1499
a((lp1500
g1497
aI0
aI1
aI144
aI163
ag1199
a(lp1501
g577
ag577
ag7
ag7
atp1502
a((lp1503
S'267'
p1504
aI0
aI1
aI0
aI29
ag1199
a(lp1505
g270
ag270
ag270
ag270
ag270
ag270
atp1506
a((lp1507
g1504
aI0
aI2
aI0
aI34
ag1199
a(lp1508
g270
ag270
ag270
ag270
ag270
ag270
ag270
atp1509
a((lp1510
g1504
aI1
aI2
aI0
aI29
ag1199
a(lp1511
g270
ag270
ag270
ag270
ag270
ag270
atp1512
a((lp1513
g1504
aI0
aI2
aI96
aI220
ag1199
a(lp1514
g69
ag270
ag270
ag270
ag270
ag270
ag270
ag270
ag270
ag270
ag270
ag270
ag270
ag270
ag270
ag270
ag270
ag270
ag270
ag270
ag270
ag69
ag69
ag69
ag69
atp1515
a((lp1516
S'268'
p1517
aI0
aI1
aI0
aI214
ag1199
a(lp1518
g7
ag7
ag7
ag7
ag7
ag7
ag7
ag7
ag7
ag7
ag7
ag7
ag7
ag7
ag7
ag7
ag7
ag7
ag7
ag7
ag7
ag7
ag7
ag7
ag7
ag269
ag269
ag269
ag269
ag269
ag269
ag69
ag7
ag7
ag7
ag7
ag7
ag69
ag270
ag270
ag270
ag270
ag270
atp1519
a((lp1520
S'269'
p1521
aI0
aI1
aI0
aI204
ag1199
a(lp1522
g270
ag270
ag270
ag270
ag270
ag270
ag270
ag270
ag270
ag270
ag270
ag270
ag270
ag270
ag270
ag270
ag69
ag69
ag69
ag69
ag270
ag270
ag270
ag270
ag270
ag270
ag270
ag270
ag270
ag69
ag7
ag7
ag7
ag7
ag7
ag7
ag7
ag7
ag69
ag69
ag69
atp1523
a((lp1524
g1521
aI0
aI2
aI0
aI204
ag1199
a(lp1525
g270
ag270
ag270
ag270
ag270
ag270
ag270
ag270
ag270
ag270
ag270
ag270
ag270
ag270
ag270
ag270
ag270
ag270
ag270
ag270
ag270
ag270
ag270
ag270
ag270
ag270
ag270
ag69
ag69
ag69
ag7
ag7
ag7
ag7
ag7
ag7
ag7
ag7
ag69
ag270
ag270
atp1526
a((lp1527
g1521
aI1
aI2
aI0
aI204
ag1199
a(lp1528
g270
ag270
ag270
ag270
ag270
ag270
ag270
ag270
ag270
ag270
ag270
ag270
ag270
ag270
ag270
ag270
ag69
ag69
ag69
ag69
ag270
ag270
ag270
ag270
ag270
ag270
ag270
ag69
ag69
ag69
ag7
ag7
ag7
ag7
ag7
ag7
ag7
ag7
ag69
ag69
ag69
atp1529
a((lp1530
S'270'
p1531
aI0
aI1
aI24
aI493
ag1199
a(lp1532
g269
ag269
ag269
ag269
ag1214
ag1214
ag1214
ag1214
ag270
ag270
ag270
ag270
ag270
ag270
ag270
ag270
ag270
ag270
ag270
ag270
ag270
ag270
ag270
ag270
ag270
ag270
ag270
ag270
ag270
ag270
ag270
ag270
ag270
ag270
ag270
ag270
ag270
ag270
ag270
ag270
ag270
ag270
ag270
ag270
ag270
ag270
ag270
ag270
ag270
ag270
ag270
ag270
ag270
ag270
ag69
ag7
ag7
ag7
ag7
ag7
ag7
ag7
ag7
ag7
ag7
ag7
ag69
ag270
ag270
ag270
ag270
ag270
ag270
ag270
ag270
ag270
ag270
ag270
ag270
ag69
ag7
ag7
ag7
ag7
ag7
ag270
ag270
ag270
ag270
ag270
ag270
ag270
ag270
ag270
atp1533
a((lp1534
S'271'
p1535
aI0
aI1
aI0
aI484
ag1199
a(lp1536
g269
ag269
ag269
ag7
ag7
ag1214
ag1214
ag1214
ag1214
ag1214
ag1214
ag1214
ag1214
ag1214
ag1214
ag1214
ag1214
ag270
ag270
ag270
ag270
ag270
ag270
ag7
ag7
ag269
ag269
ag269
ag69
ag7
ag7
ag7
ag69
ag270
ag270
ag270
ag270
ag270
ag270
ag270
ag270
ag270
ag270
ag270
ag270
ag69
ag7
ag7
ag7
ag7
ag7
ag7
ag7
ag7
ag7
ag7
ag7
ag7
ag7
ag7
ag7
ag7
ag7
ag7
ag7
ag7
ag7
ag7
ag7
ag7
ag7
ag7
ag7
ag7
ag7
ag7
ag7
ag7
ag7
ag7
ag69
ag270
ag270
ag270
ag270
ag270
ag7
ag7
ag7
ag7
ag7
ag7
ag7
ag7
ag7
ag7
ag7
atp1537
a((lp1538
S'272'
p1539
aI0
aI1
aI53
aI312
ag1199
a(lp1540
g269
ag269
ag269
ag269
ag269
ag269
ag1214
ag1214
ag1214
ag1214
ag1214
ag1214
ag1214
ag270
ag270
ag270
ag270
ag270
ag270
ag270
ag270
ag270
ag270
ag270
ag270
ag270
ag270
ag270
ag270
ag270
ag270
ag270
ag270
ag270
ag270
ag270
ag270
ag270
ag270
ag270
ag270
ag69
ag7
ag7
ag7
ag69
ag269
ag269
ag69
ag7
ag270
ag270
atp1541
a((lp1542
S'273'
p1543
aI0
aI1
aI0
aI259
ag1199
a(lp1544
g269
ag269
ag269
ag269
ag269
ag269
ag274
ag274
ag269
ag269
ag1214
ag1214
ag1214
ag1214
ag1214
ag1214
ag1214
ag1214
ag270
ag270
ag69
ag7
ag7
ag7
ag7
ag7
ag7
ag7
ag7
ag7
ag7
ag7
ag7
ag7
ag7
ag7
ag7
ag7
ag7
ag7
ag7
ag69
ag270
ag270
ag270
ag270
ag270
ag270
ag270
ag270
ag270
ag270
atp1545
a((lp1546
S'275'
p1547
aI0
aI1
aI0
aI74
ag1199
a(lp1548
g269
ag269
ag269
ag69
ag270
ag270
ag270
ag270
ag270
ag270
ag270
ag69
ag7
ag7
ag7
atp1549
a((lp1550
S'27'
p1551
aI0
aI1
aI0
aI499
ag1199
a(lp1552
g7
ag7
ag7
ag7
ag7
ag7
ag7
ag7
ag7
ag7
ag7
ag7
ag7
ag7
ag7
ag270
ag69
ag7
ag7
ag7
ag7
ag7
ag7
ag7
ag7
ag269
ag269
ag269
ag269
ag269
ag69
ag7
ag7
ag270
ag270
ag270
ag270
ag7
ag7
ag7
ag7
ag7
ag7
ag7
ag7
ag7
ag7
ag7
ag7
ag7
ag7
ag7
ag69
ag269
ag269
ag269
ag269
ag269
ag269
ag269
ag269
ag269
ag269
ag269
ag269
ag269
ag269
ag269
ag269
ag269
ag269
ag269
ag269
ag269
ag269
ag269
ag269
ag269
ag7
ag7
ag7
ag7
ag7
ag7
ag7
ag7
ag7
ag69
ag269
ag269
ag269
ag269
ag269
ag269
ag269
ag69
ag7
ag7
ag69
ag270
atp1553
a((lp1554
S'286'
p1555
aI0
aI1
aI0
aI44
ag1199
a(lp1556
g270
ag270
ag270
ag270
ag270
ag270
ag270
ag270
ag270
atp1557
a((lp1558
S'28'
p1559
aI0
aI1
aI0
aI179
ag1199
a(lp1560
g7
ag7
ag69
ag269
ag269
ag269
ag269
ag269
ag269
ag269
ag269
ag269
ag269
ag269
ag269
ag1214
ag1214
ag270
ag270
ag270
ag1214
ag7
ag7
ag7
ag7
ag7
ag7
ag7
ag7
ag7
ag7
ag7
ag69
ag269
ag269
ag269
atp1561
a((lp1562
S'292'
p1563
aI1
aI2
aI244
aI293
ag1199
a(lp1564
g69
ag7
ag69
ag270
ag270
ag270
ag270
ag270
ag270
ag270
atp1565
a((lp1566
S'297'
p1567
aI0
aI1
aI30
aI174
ag1199
a(lp1568
g270
ag270
ag270
ag69
ag7
ag7
ag7
ag7
ag7
ag7
ag69
ag7
ag7
ag7
ag7
ag69
ag269
ag269
ag269
ag269
ag69
ag270
ag270
ag270
ag270
ag69
ag7
ag270
ag270
atp1569
a((lp1570
S'2'
p1571
aI0
aI1
aI0
aI1009
ag1199
a(lp1572
g270
ag270
ag270
ag270
ag270
ag270
ag270
ag270
ag270
ag270
ag270
ag270
ag270
ag69
ag7
ag7
ag7
ag7
ag7
ag7
ag7
ag7
ag7
ag7
ag7
ag7
ag7
ag7
ag7
ag69
ag269
ag269
ag269
ag269
ag269
ag269
ag269
ag269
ag69
ag7
ag7
ag7
ag7
ag7
ag7
ag7
ag69
ag269
ag269
ag269
ag269
ag269
ag269
ag269
ag269
ag269
ag269
ag269
ag269
ag269
ag269
ag269
ag269
ag269
ag269
ag269
ag269
ag269
ag269
ag269
ag269
ag269
ag269
ag269
ag269
ag269
ag269
ag269
ag269
ag269
ag269
ag269
ag269
ag269
ag269
ag269
ag269
ag269
ag269
ag269
ag269
ag269
ag269
ag269
ag269
ag269
ag269
ag269
ag69
ag7
ag7
ag7
ag7
ag7
ag7
ag7
ag7
ag7
ag7
ag7
ag7
ag7
ag7
ag69
ag269
ag269
ag269
ag269
ag269
ag269
ag269
ag274
ag274
ag274
ag274
ag274
ag274
ag269
ag269
ag269
ag269
ag269
ag269
ag269
ag269
ag274
ag274
ag274
ag274
ag274
ag274
ag274
ag274
ag274
ag274
ag274
ag274
ag274
ag274
ag274
ag274
ag269
ag269
ag269
ag269
ag269
ag269
ag269
ag269
ag269
ag269
ag269
ag269
ag269
ag269
ag269
ag269
ag269
ag269
ag269
ag269
ag269
ag269
ag269
ag269
ag269
ag269
ag269
ag269
ag269
ag269
ag269
ag269
ag269
ag269
ag269
ag69
ag7
ag7
ag7
ag577
ag270
ag270
ag577
ag69
ag269
ag269
ag69
ag7
ag7
ag270
ag270
atp1573
a((lp1574
S'32'
p1575
aI0
aI1
aI0
aI19
ag1199
a(lp1576
g270
ag270
ag270
ag69
atp1577
a((lp1578
g1575
aI0
aI1
aI254
aI303
ag1199
a(lp1579
g1214
ag270
ag270
ag270
ag270
ag270
ag270
ag270
ag577
ag69
atp1580
a((lp1581
S'33'
p1582
aI0
aI1
aI21
aI115
ag1199
a(lp1583
g7
ag69
ag69
ag7
ag7
ag7
ag1214
ag270
ag270
ag577
ag577
ag1214
ag1214
ag270
ag270
ag270
ag270
ag270
ag270
atp1584
a((lp1585
S'38'
p1586
aI0
aI1
aI0
aI149
ag1199
a(lp1587
g1214
ag1214
ag1214
ag1214
ag1214
ag1214
ag1214
ag1214
ag1214
ag270
ag270
ag270
ag270
ag270
ag270
ag270
ag270
ag1214
ag7
ag7
ag7
ag7
ag7
ag7
ag7
ag69
ag269
ag269
ag269
ag269
atp1588
a((lp1589
S'39'
p1590
aI0
aI1
aI164
aI463
ag1199
a(lp1591
g270
ag270
ag270
ag270
ag270
ag270
ag270
ag270
ag69
ag7
ag7
ag7
ag7
ag7
ag7
ag7
ag7
ag7
ag7
ag7
ag7
ag7
ag7
ag69
ag269
ag269
ag269
ag69
ag7
ag7
ag7
ag7
ag69
ag69
ag69
ag270
ag270
ag270
ag270
ag270
ag270
ag270
ag270
ag270
ag270
ag270
ag270
ag270
ag270
ag270
ag270
ag270
ag270
ag270
ag270
ag270
ag270
ag270
ag270
ag270
atp1592
a((lp1593
S'3'
p1594
aI0
aI1
aI0
aI399
ag1199
a(lp1595
g269
ag269
ag269
ag269
ag269
ag269
ag269
ag269
ag269
ag269
ag269
ag269
ag269
ag269
ag269
ag269
ag269
ag269
ag69
ag1214
ag1214
ag1214
ag1214
ag1214
ag269
ag269
ag269
ag269
ag269
ag269
ag269
ag269
ag269
ag269
ag269
ag269
ag269
ag269
ag269
ag577
ag577
ag577
ag577
ag577
ag577
ag577
ag577
ag577
ag270
ag270
ag270
ag270
ag270
ag270
ag577
ag577
ag269
ag269
ag269
ag269
ag269
ag269
ag269
ag269
ag269
ag269
ag269
ag269
ag269
ag269
ag269
ag69
ag7
ag7
ag7
ag69
ag269
ag269
ag269
ag269
atp1596
a((lp1597
S'40'
p1598
aI0
aI1
aI0
aI144
ag1199
a(lp1599
g270
ag270
ag270
ag270
ag270
ag270
ag270
ag270
ag69
ag7
ag7
ag7
ag7
ag7
ag270
ag270
ag270
ag270
ag270
ag270
ag270
ag270
ag7
ag7
ag7
ag7
ag7
ag7
ag7
atp1600
a((lp1601
S'41'
p1602
aI0
aI1
aI0
aI239
ag1199
a(lp1603
g270
ag270
ag270
ag270
ag270
ag270
ag270
ag270
ag270
ag270
ag270
ag270
ag270
ag270
ag270
ag270
ag270
ag69
ag7
ag7
ag577
ag270
ag270
ag577
ag7
ag7
ag7
ag7
ag69
ag270
ag270
ag270
ag270
ag270
ag270
ag270
ag270
ag270
ag270
ag69
ag7
ag7
ag7
ag7
ag7
ag7
ag7
ag7
atp1604
a((lp1605
S'42'
p1606
aI0
aI1
aI0
aI109
ag1199
a(lp1607
g7
ag7
ag7
ag69
ag269
ag69
ag69
ag270
ag270
ag270
ag270
ag7
ag577
ag270
ag270
ag270
ag577
ag270
ag270
ag270
ag69
ag7
atp1608
a((lp1609
S'43'
p1610
aI0
aI1
aI0
aI109
ag1199
a(lp1611
g69
ag69
ag69
ag270
ag270
ag270
ag270
ag270
ag270
ag270
ag270
ag270
ag270
ag270
ag270
ag270
ag270
ag270
ag270
ag7
ag7
ag7
atp1612
a((lp1613
S'44'
p1614
aI0
aI1
aI0
aI169
ag1199
a(lp1615
g270
ag270
ag270
ag69
ag7
ag7
ag269
ag269
ag269
ag269
ag269
ag1214
ag1214
ag1214
ag577
ag577
ag269
ag1214
ag1214
ag1214
ag269
ag269
ag269
ag269
ag1214
ag1214
ag1214
ag269
ag269
ag269
ag269
ag269
ag577
ag577
atp1616
a((lp1617
S'48'
p1618
aI1
aI2
aI248
aI342
ag1199
a(lp1619
g269
ag269
ag269
ag269
ag269
ag1214
ag1214
ag1214
ag1214
ag1214
ag1214
ag270
ag270
ag270
ag270
ag270
ag270
ag270
ag1214
atp1620
a((lp1621
S'49'
p1622
aI0
aI1
aI0
aI164
ag1199
a(lp1623
g270
ag270
ag270
ag270
ag270
ag270
ag270
ag270
ag270
ag270
ag270
ag270
ag270
ag270
ag270
ag270
ag69
ag7
ag7
ag69
ag269
ag269
ag269
ag269
ag269
ag69
ag69
ag270
ag270
ag270
ag270
ag270
ag270
atp1624
a((lp1625
g1622
aI0
aI2
aI0
aI59
ag1199
a(lp1626
g270
ag270
ag270
ag270
ag270
ag270
ag270
ag270
ag270
ag270
ag270
ag270
atp1627
a((lp1628
g1622
aI1
aI2
aI0
aI59
ag1199
a(lp1629
g270
ag270
ag270
ag270
ag270
ag270
ag270
ag270
ag270
ag270
ag270
ag270
atp1630
a((lp1631
g1622
aI0
aI1
aI64
aI163
ag1199
a(lp1632
g270
ag270
ag270
ag69
ag7
ag7
ag69
ag269
ag269
ag269
ag269
ag269
ag69
ag69
ag270
ag270
ag270
ag270
ag270
ag270
atp1633
a((lp1634
S'50'
p1635
aI1
aI2
aI0
aI214
ag1199
a(lp1636
g7
ag7
ag7
ag7
ag7
ag7
ag69
ag270
ag270
ag270
ag270
ag270
ag270
ag270
ag69
ag7
ag7
ag7
ag7
ag7
ag7
ag69
ag270
ag270
ag270
ag270
ag270
ag270
ag270
ag270
ag270
ag270
ag270
ag270
ag270
ag270
ag270
ag270
ag7
ag7
ag7
ag7
ag7
atp1637
a((lp1638
g1635
aI1
aI2
aI284
aI318
ag1199
a(lp1639
g270
ag270
ag69
ag7
ag69
ag270
ag270
atp1640
a((lp1641
S'51'
p1642
aI1
aI2
aI0
aI229
ag1199
a(lp1643
g270
ag270
ag270
ag270
ag270
ag69
ag69
ag7
ag7
ag69
ag270
ag270
ag270
ag270
ag270
ag270
ag270
ag270
ag270
ag270
ag270
ag270
ag270
ag270
ag270
ag270
ag270
ag270
ag270
ag270
ag270
ag270
ag270
ag270
ag270
ag270
ag270
ag270
ag270
ag270
ag270
ag270
ag69
ag7
ag7
ag7
atp1644
a((lp1645
g1642
aI0
aI1
aI230
aI259
ag1199
a(lp1646
g69
ag270
ag270
ag270
ag270
ag270
atp1647
a((lp1648
g1642
aI1
aI2
aI261
aI310
ag1199
a(lp1649
g270
ag270
ag270
ag270
ag270
ag270
ag270
ag270
ag270
ag270
atp1650
a((lp1651
S'53'
p1652
aI0
aI1
aI0
aI89
ag1199
a(lp1653
g269
ag1214
ag1214
ag1214
ag1214
ag1214
ag577
ag577
ag577
ag577
ag577
ag270
ag270
ag270
ag270
ag270
ag1214
ag7
atp1654
a((lp1655
S'54'
p1656
aI0
aI1
aI80
aI569
ag1199
a(lp1657
g7
ag7
ag7
ag7
ag1214
ag1214
ag1214
ag1214
ag1214
ag1214
ag269
ag269
ag269
ag269
ag269
ag269
ag1214
ag1214
ag1214
ag1214
ag1214
ag1214
ag1214
ag1214
ag1214
ag1214
ag1214
ag1214
ag1214
ag1214
ag1214
ag1214
ag577
ag577
ag577
ag577
ag577
ag577
ag577
ag577
ag270
ag270
ag270
ag270
ag577
ag577
ag577
ag577
ag7
ag69
ag69
ag69
ag7
ag7
ag7
ag69
ag269
ag269
ag69
ag69
ag69
ag69
ag7
ag7
ag69
ag269
ag269
ag269
ag269
ag269
ag269
ag269
ag269
ag269
ag69
ag69
ag69
ag69
ag69
ag69
ag269
ag269
ag269
ag7
ag7
ag7
ag7
ag7
ag7
ag7
ag7
ag7
ag7
ag7
ag69
ag269
ag269
ag269
atp1658
a((lp1659
S'56'
p1660
aI0
aI1
aI0
aI184
ag1199
a(lp1661
g7
ag7
ag7
ag7
ag7
ag69
ag270
ag270
ag69
ag7
ag7
ag7
ag7
ag7
ag7
ag7
ag7
ag7
ag7
ag7
ag1214
ag270
ag270
ag270
ag270
ag270
ag270
ag270
ag270
ag1214
ag7
ag7
ag7
ag7
ag7
ag7
ag7
atp1662
a((lp1663
S'57'
p1664
aI0
aI1
aI0
aI1679
ag1199
a(lp1665
g270
ag270
ag270
ag270
ag270
ag270
ag270
ag270
ag270
ag270
ag270
ag270
ag270
ag270
ag69
ag7
ag7
ag69
ag270
ag270
ag270
ag270
ag270
ag270
ag270
ag270
ag270
ag69
ag7
ag7
ag7
ag270
ag270
ag270
ag270
ag270
ag270
ag270
ag270
ag270
ag270
ag270
ag270
ag270
ag270
ag270
ag270
ag270
ag270
ag270
ag270
ag270
ag7
ag7
ag7
ag7
ag69
ag270
ag270
ag270
ag270
ag69
ag7
ag7
ag7
ag7
ag7
ag7
ag7
ag69
ag269
ag269
ag269
ag269
ag269
ag269
ag269
ag269
ag269
ag269
ag69
ag7
ag7
ag7
ag7
ag7
ag7
ag7
ag7
ag7
ag7
ag7
ag270
ag69
ag7
ag7
ag69
ag270
ag270
ag270
ag270
ag270
ag270
ag270
ag270
ag270
ag270
ag270
ag270
ag270
ag270
ag270
ag270
ag270
ag270
ag270
ag270
ag270
ag270
ag69
ag7
ag7
ag7
ag7
ag69
ag270
ag270
ag69
ag7
ag7
ag7
ag7
ag7
ag7
ag69
ag269
ag269
ag69
ag7
ag7
ag69
ag270
ag270
ag270
ag270
ag270
ag270
ag270
ag7
ag69
ag269
ag269
ag269
ag269
ag269
ag269
ag269
ag7
ag7
ag69
ag269
ag269
ag269
ag269
ag269
ag69
ag7
ag7
ag7
ag7
ag7
ag7
ag7
ag7
ag7
ag7
ag7
ag7
ag69
ag269
ag269
ag269
ag269
ag269
ag269
ag269
ag269
ag69
ag7
ag7
ag7
ag7
ag7
ag7
ag7
ag69
ag270
ag270
ag270
ag270
ag270
ag270
ag270
ag270
ag270
ag270
ag270
ag270
ag270
ag270
ag270
ag270
ag270
ag270
ag270
ag270
ag270
ag270
ag69
ag7
ag7
ag69
ag269
ag269
ag269
ag69
ag7
ag7
ag7
ag69
ag269
ag269
ag269
ag269
ag269
ag269
ag269
ag269
ag269
ag269
ag1214
ag1214
ag1214
ag270
ag270
ag270
ag270
ag270
ag270
ag270
ag270
ag270
ag270
ag270
ag270
ag270
ag270
ag270
ag270
ag270
ag270
ag270
ag270
ag270
ag270
ag1214
ag7
ag7
ag7
ag7
ag7
ag7
ag7
ag69
ag270
ag270
ag270
ag270
ag270
ag270
ag270
ag69
ag7
ag69
ag269
ag269
ag269
ag269
ag69
ag7
ag69
ag269
ag269
ag269
ag269
ag269
ag269
ag269
ag69
ag7
ag7
ag7
ag7
ag7
ag7
ag7
ag270
ag270
ag270
ag270
ag270
ag270
ag69
ag7
ag7
ag7
ag69
ag269
ag269
ag269
ag269
ag269
ag269
ag269
ag269
ag269
ag7
ag7
ag7
ag269
ag269
ag269
ag269
ag269
ag269
ag269
atp1666
a((lp1667
S'58'
p1668
aI0
aI1
aI0
aI124
ag1199
a(lp1669
g269
ag269
ag269
ag269
ag269
ag269
ag269
ag269
ag269
ag269
ag269
ag269
ag269
ag269
ag269
ag269
ag269
ag1214
ag1214
ag1214
ag270
ag270
ag270
ag270
ag270
atp1670
a((lp1671
S'61'
p1672
aI1
aI2
aI356
aI400
ag1199
a(lp1673
g270
ag270
ag270
ag270
ag270
ag270
ag270
ag7
ag7
atp1674
a((lp1675
g1672
aI1
aI2
aI429
aI508
ag1199
a(lp1676
g69
ag69
ag270
ag270
ag270
ag270
ag270
ag270
ag270
ag270
ag270
ag270
ag270
ag270
ag270
ag270
atp1677
a((lp1678
S'62'
p1679
aI0
aI1
aI0
aI179
ag1199
a(lp1680
g269
ag269
ag269
ag269
ag269
ag269
ag269
ag269
ag269
ag7
ag7
ag7
ag7
ag7
ag7
ag7
ag7
ag7
ag7
ag7
ag7
ag269
ag269
ag69
ag1214
ag1214
ag1214
ag1214
ag577
ag577
ag577
ag577
ag577
ag577
ag577
ag577
atp1681
a((lp1682
S'63'
p1683
aI0
aI1
aI0
aI544
ag1199
a(lp1684
g7
ag7
ag1214
ag1214
ag1214
ag1214
ag1214
ag1214
ag1214
ag7
ag7
ag7
ag7
ag7
ag7
ag7
ag7
ag7
ag7
ag7
ag7
ag7
ag7
ag7
ag7
ag7
ag7
ag7
ag7
ag7
ag7
ag7
ag7
ag7
ag7
ag7
ag7
ag7
ag7
ag7
ag69
ag269
ag269
ag7
ag7
ag7
ag7
ag7
ag7
ag7
ag7
ag7
ag269
ag269
ag269
ag1214
ag1214
ag270
ag270
ag270
ag270
ag270
ag270
ag270
ag270
ag270
ag270
ag7
ag7
ag7
ag7
ag7
ag7
ag7
ag7
ag7
ag7
ag7
ag7
ag1214
ag1214
ag1214
ag1214
ag1214
ag1214
ag1214
ag1214
ag1214
ag1214
ag1214
ag7
ag7
ag7
ag7
ag7
ag7
ag7
ag7
ag7
ag7
ag7
ag7
ag7
ag7
ag7
ag7
ag7
ag7
ag7
atp1685
a((lp1686
S'64'
p1687
aI0
aI1
aI113
aI212
ag1199
a(lp1688
g7
ag7
ag1214
ag1214
ag1214
ag1214
ag1214
ag1214
ag270
ag1214
ag7
ag7
ag7
ag7
ag7
ag7
ag7
ag7
ag7
ag7
atp1689
a((lp1690
S'65'
p1691
aI0
aI1
aI0
aI19
ag1199
a(lp1692
g270
ag270
ag270
ag270
atp1693
a((lp1694
g1691
aI0
aI1
aI97
aI276
ag1199
a(lp1695
g270
ag270
ag270
ag270
ag270
ag270
ag270
ag270
ag270
ag270
ag270
ag270
ag270
ag270
ag270
ag270
ag270
ag1214
ag1214
ag7
ag7
ag7
ag69
ag69
ag69
ag69
ag270
ag270
ag270
ag270
ag270
ag270
ag270
ag270
ag270
ag69
atp1696
a((lp1697
g855
aI0
aI1
aI164
aI403
ag1199
a(lp1698
g7
ag7
ag69
ag269
ag269
ag269
ag269
ag269
ag69
ag1214
ag270
ag270
ag270
ag270
ag270
ag270
ag1214
ag1214
ag1214
ag1214
ag7
ag7
ag7
ag7
ag7
ag7
ag577
ag270
ag270
ag270
ag270
ag270
ag270
ag270
ag270
ag270
ag270
ag270
ag270
ag270
ag270
ag270
ag270
ag270
ag270
ag577
ag577
ag577
atp1699
a((lp1700
S'71'
p1701
aI0
aI1
aI0
aI264
ag1199
a(lp1702
g7
ag7
ag7
ag7
ag7
ag7
ag269
ag269
ag269
ag69
ag7
ag7
ag7
ag7
ag7
ag7
ag7
ag7
ag7
ag7
ag7
ag7
ag7
ag7
ag7
ag7
ag7
ag7
ag7
ag7
ag1214
ag1214
ag1214
ag1214
ag1214
ag7
ag7
ag7
ag7
ag7
ag7
ag7
ag577
ag577
ag577
ag577
ag69
ag269
ag269
ag269
ag269
ag269
ag69
atp1703
a((lp1704
S'7'
p1705
aI0
aI1
aI0
aI44
ag1199
a(lp1706
g270
ag270
ag7
ag7
ag7
ag7
ag7
ag7
ag577
atp1707
a((lp1708
g1705
aI0
aI1
aI101
aI155
ag1199
a(lp1709
g270
ag270
ag270
ag270
ag270
ag270
ag270
ag270
ag270
ag270
ag69
atp1710
a((lp1711
g1705
aI0
aI1
aI199
aI303
ag1199
a(lp1712
g7
ag7
ag7
ag577
ag270
ag270
ag270
ag270
ag270
ag270
ag270
ag270
ag270
ag270
ag270
ag270
ag270
ag270
ag270
ag270
ag270
atp1713
a((lp1714
S'89'
p1715
aI0
aI1
aI55
aI94
ag1199
a(lp1716
g270
ag270
ag270
ag270
ag270
ag270
ag7
ag7
atp1717
a((lp1718
S'8'
p1719
aI0
aI1
aI0
aI24
ag1199
a(lp1720
g270
ag270
ag270
ag69
ag7
atp1721
a((lp1722
g1719
aI0
aI1
aI419
aI513
ag1199
a(lp1723
g7
ag7
ag69
ag269
ag269
ag269
ag69
ag7
ag7
ag7
ag7
ag7
ag7
ag7
ag7
ag7
ag7
ag7
ag7
atp1724
a((lp1725
g1719
aI0
aI1
aI635
aI679
ag1199
a(lp1726
g270
ag270
ag7
ag7
ag7
ag7
ag7
ag7
ag7
atp1727
a((lp1728
S'90'
p1729
aI0
aI1
aI0
aI114
ag1199
a(lp1730
g1214
ag1214
ag69
ag269
ag269
ag577
ag577
ag577
ag577
ag577
ag577
ag577
ag577
ag577
ag69
ag69
ag7
ag7
ag7
ag69
ag270
ag270
ag270
atp1731
a((lp1732
S'91'
p1733
aI0
aI1
aI26
aI70
ag1199
a(lp1734
g1214
ag1214
ag269
ag269
ag269
ag69
ag1214
ag1214
ag69
atp1735
a((lp1736
S'94'
p1737
aI0
aI1
aI276
aI490
ag1199
a(lp1738
g269
ag269
ag269
ag269
ag269
ag69
ag1214
ag1214
ag1214
ag269
ag269
ag269
ag269
ag269
ag269
ag269
ag269
ag269
ag269
ag269
ag269
ag69
ag577
ag577
ag577
ag577
ag577
ag577
ag577
ag577
ag577
ag577
ag270
ag270
ag577
ag577
ag577
ag577
ag577
ag577
ag577
ag69
ag269
atp1739
a((lp1740
S'97'
p1741
aI0
aI1
aI257
aI381
ag1199
a(lp1742
g270
ag270
ag270
ag270
ag270
ag270
ag270
ag270
ag270
ag270
ag270
ag270
ag270
ag270
ag270
ag270
ag270
ag270
ag270
ag270
ag270
ag270
ag270
ag270
ag270
atp1743
a((lp1744
S'99'
p1745
aI0
aI2
aI0
aI109
ag1199
a(lp1746
g270
ag270
ag69
ag7
ag69
ag270
ag270
ag270
ag270
ag270
ag270
ag270
ag270
ag270
ag270
ag270
ag270
ag270
ag270
ag270
ag270
ag270
atp1747
asS'AvertGaze'
p1748
(lp1749
((lp1750
S'107'
p1751
aI0
aI1
aI28
aI107
aS'AvertGaze'
p1752
a(lp1753
g274
ag274
ag274
ag274
ag274
ag274
ag274
ag274
ag274
ag274
ag274
ag274
ag274
ag274
ag274
ag274
atp1754
a((lp1755
S'112'
p1756
aI0
aI1
aI0
aI109
ag1752
a(lp1757
g7
ag7
ag7
ag7
ag7
ag7
ag7
ag7
ag7
ag269
ag269
ag269
ag274
ag274
ag274
ag274
ag274
ag274
ag274
ag274
ag274
ag274
atp1758
a((lp1759
S'114'
p1760
aI0
aI2
aI191
aI290
ag1752
a(lp1761
g274
ag274
ag274
ag274
ag274
ag274
ag274
ag274
ag274
ag274
ag274
ag274
ag274
ag274
ag274
ag274
ag274
ag274
ag274
ag274
atp1762
a((lp1763
S'116'
p1764
aI0
aI1
aI376
aI445
ag1752
a(lp1765
g69
ag274
ag274
ag270
ag270
ag274
ag274
ag274
ag274
ag274
ag274
ag274
ag270
ag270
atp1766
a((lp1767
S'118'
p1768
aI1
aI2
aI379
aI483
ag1752
a(lp1769
g274
ag274
ag274
ag274
ag274
ag274
ag274
ag274
ag274
ag274
ag274
ag274
ag274
ag274
ag274
ag274
ag274
ag274
ag274
ag274
ag274
atp1770
a((lp1771
S'120'
p1772
aI0
aI1
aI206
aI235
ag1752
a(lp1773
g274
ag274
ag274
ag274
ag274
ag274
atp1774
a((lp1775
S'121'
p1776
aI0
aI1
aI365
aI409
ag1752
a(lp1777
g274
ag274
ag274
ag274
ag274
ag274
ag274
ag274
ag274
atp1778
a((lp1779
g1776
aI0
aI1
aI497
aI546
ag1752
a(lp1780
g69
ag274
ag274
ag274
ag274
ag274
ag274
ag274
ag274
ag274
atp1781
a((lp1782
S'125'
p1783
aI0
aI1
aI550
aI1059
ag1752
a(lp1784
g269
ag269
ag274
ag274
ag274
ag274
ag274
ag274
ag274
ag274
ag274
ag274
ag274
ag274
ag274
ag274
ag274
ag274
ag274
ag274
ag274
ag274
ag274
ag274
ag274
ag274
ag274
ag274
ag274
ag274
ag274
ag274
ag274
ag274
ag274
ag274
ag274
ag274
ag274
ag274
ag274
ag274
ag274
ag274
ag274
ag274
ag274
ag274
ag274
ag274
ag274
ag274
ag274
ag274
ag274
ag274
ag274
ag274
ag274
ag274
ag274
ag274
ag274
ag274
ag274
ag274
ag274
ag274
ag274
ag274
ag274
ag274
ag274
ag274
ag274
ag274
ag274
ag274
ag274
ag274
ag274
ag274
ag274
ag274
ag274
ag274
ag274
ag274
ag274
ag274
ag274
ag274
ag274
ag274
ag274
ag274
ag274
ag274
ag274
ag274
ag274
ag274
atp1785
a((lp1786
S'127'
p1787
aI0
aI1
aI0
aI334
ag1752
a(lp1788
g269
ag269
ag269
ag269
ag269
ag269
ag269
ag269
ag7
ag7
ag7
ag7
ag269
ag269
ag269
ag269
ag269
ag269
ag269
ag269
ag269
ag269
ag269
ag269
ag274
ag274
ag274
ag274
ag274
ag274
ag274
ag274
ag274
ag274
ag274
ag274
ag274
ag274
ag274
ag274
ag274
ag274
ag274
ag274
ag274
ag274
ag274
ag274
ag274
ag274
ag274
ag274
ag274
ag274
ag274
ag274
ag274
ag274
ag274
ag274
ag274
ag274
ag274
ag274
ag274
ag274
ag274
atp1789
a((lp1790
S'128'
p1791
aI0
aI1
aI0
aI209
ag1752
a(lp1792
g274
ag274
ag274
ag274
ag274
ag274
ag274
ag274
ag274
ag274
ag274
ag274
ag274
ag274
ag274
ag274
ag274
ag274
ag274
ag274
ag274
ag274
ag274
ag274
ag274
ag274
ag274
ag274
ag274
ag274
ag274
ag274
ag274
ag274
ag274
ag274
ag274
ag274
ag274
ag274
ag274
ag274
atp1793
a((lp1794
S'142'
p1795
aI0
aI1
aI90
aI169
ag1752
a(lp1796
g274
ag274
ag274
ag274
ag274
ag274
ag274
ag274
ag274
ag274
ag274
ag274
ag274
ag274
ag274
ag274
atp1797
a((lp1798
S'143'
p1799
aI0
aI1
aI60
aI189
ag1752
a(lp1800
g274
ag274
ag274
ag274
ag274
ag274
ag274
ag274
ag274
ag274
ag274
ag274
ag274
ag274
ag274
ag274
ag274
ag274
ag274
ag274
ag274
ag274
ag274
ag274
ag274
ag274
atp1801
a((lp1802
S'166'
p1803
aI0
aI1
aI0
aI79
ag1752
a(lp1804
g269
ag269
ag269
ag269
ag269
ag269
ag269
ag274
ag274
ag274
ag274
ag274
ag274
ag274
ag274
ag274
atp1805
a((lp1806
S'176'
p1807
aI0
aI1
aI0
aI94
ag1752
a(lp1808
g269
ag269
ag269
ag269
ag274
ag274
ag274
ag274
ag269
ag274
ag274
ag274
ag274
ag274
ag274
ag274
ag274
ag274
ag274
atp1809
a((lp1810
S'188'
p1811
aI0
aI1
aI457
aI556
ag1752
a(lp1812
g269
ag269
ag274
ag274
ag274
ag274
ag274
ag274
ag274
ag274
ag274
ag274
ag274
ag274
ag274
ag274
ag274
ag274
ag274
ag274
atp1813
a((lp1814
S'192'
p1815
aI0
aI1
aI545
aI569
ag1752
a(lp1816
g274
ag274
ag274
ag274
ag274
atp1817
a((lp1818
S'242'
p1819
aI0
aI1
aI330
aI474
ag1752
a(lp1820
g274
ag274
ag274
ag274
ag274
ag274
ag274
ag274
ag274
ag274
ag274
ag274
ag274
ag274
ag274
ag274
ag274
ag274
ag274
ag274
ag274
ag274
ag274
ag274
ag274
ag274
ag274
ag274
ag274
atp1821
a((lp1822
S'256'
p1823
aI0
aI1
aI0
aI144
ag1752
a(lp1824
g269
ag269
ag269
ag269
ag269
ag269
ag269
ag269
ag269
ag269
ag269
ag269
ag269
ag269
ag269
ag269
ag269
ag269
ag274
ag274
ag274
ag274
ag274
ag274
ag274
ag274
ag274
ag274
ag274
atp1825
a((lp1826
S'257'
p1827
aI0
aI1
aI136
aI215
ag1752
a(lp1828
g274
ag274
ag274
ag274
ag274
ag274
ag274
ag274
ag274
ag274
ag269
ag269
ag269
ag269
ag269
ag269
atp1829
a((lp1830
S'258'
p1831
aI0
aI1
aI122
aI266
ag1752
a(lp1832
g269
ag274
ag274
ag274
ag274
ag274
ag274
ag274
ag274
ag274
ag274
ag274
ag274
ag274
ag274
ag274
ag274
ag274
ag274
ag274
ag274
ag274
ag274
ag274
ag274
ag274
ag274
ag274
ag274
atp1833
a((lp1834
S'259'
p1835
aI0
aI1
aI0
aI284
ag1752
a(lp1836
g269
ag269
ag274
ag274
ag274
ag274
ag274
ag274
ag274
ag274
ag274
ag274
ag274
ag274
ag274
ag274
ag274
ag274
ag274
ag269
ag269
ag269
ag269
ag269
ag269
ag269
ag269
ag269
ag269
ag269
ag269
ag269
ag269
ag269
ag269
ag269
ag269
ag269
ag269
ag269
ag269
ag269
ag269
ag274
ag274
ag274
ag274
ag274
ag274
ag274
ag274
ag274
ag274
ag274
ag274
ag274
ag274
atp1837
a((lp1838
S'25'
p1839
aI0
aI1
aI474
aI853
ag1752
a(lp1840
g274
ag274
ag274
ag274
ag274
ag274
ag274
ag274
ag274
ag274
ag274
ag274
ag274
ag274
ag274
ag274
ag269
ag269
ag269
ag274
ag274
ag274
ag274
ag274
ag274
ag274
ag274
ag274
ag274
ag274
ag274
ag274
ag274
ag274
ag274
ag274
ag274
ag274
ag274
ag274
ag274
ag274
ag274
ag1214
ag270
ag270
ag270
ag270
ag270
ag1214
ag1214
ag274
ag274
ag274
ag274
ag274
ag274
ag274
ag274
ag274
ag274
ag274
ag274
ag274
ag274
ag274
ag274
ag274
ag274
ag274
ag269
ag269
ag269
ag269
ag269
ag269
atp1841
a((lp1842
S'260'
p1843
aI0
aI1
aI118
aI127
ag1752
a(lp1844
g274
ag274
atp1845
a((lp1846
S'261'
p1847
aI0
aI1
aI0
aI119
ag1752
a(lp1848
g7
ag7
ag274
ag274
ag274
ag274
ag274
ag274
ag274
ag274
ag274
ag274
ag274
ag274
ag274
ag274
ag274
ag274
ag274
ag274
ag274
ag274
ag274
ag274
atp1849
a((lp1850
S'262'
p1851
aI0
aI1
aI0
aI264
ag1752
a(lp1852
g269
ag269
ag269
ag269
ag269
ag269
ag274
ag274
ag274
ag274
ag274
ag269
ag269
ag269
ag269
ag269
ag269
ag274
ag274
ag274
ag274
ag274
ag274
ag274
ag274
ag274
ag274
ag274
ag274
ag274
ag274
ag274
ag274
ag274
ag274
ag274
ag274
ag274
ag274
ag274
ag274
ag274
ag274
ag274
ag274
ag274
ag274
ag274
ag274
ag274
ag274
ag274
ag274
atp1853
a((lp1854
S'263'
p1855
aI0
aI1
aI0
aI764
ag1752
a(lp1856
g269
ag269
ag269
ag269
ag269
ag269
ag269
ag269
ag269
ag269
ag269
ag269
ag269
ag269
ag269
ag269
ag269
ag269
ag269
ag269
ag269
ag269
ag269
ag269
ag269
ag269
ag269
ag269
ag269
ag269
ag269
ag269
ag269
ag269
ag269
ag269
ag269
ag269
ag269
ag269
ag269
ag269
ag269
ag269
ag269
ag269
ag269
ag269
ag269
ag269
ag269
ag269
ag269
ag269
ag269
ag269
ag269
ag269
ag269
ag269
ag269
ag269
ag269
ag269
ag269
ag269
ag269
ag274
ag274
ag274
ag274
ag274
ag274
ag274
ag274
ag274
ag274
ag274
ag274
ag274
ag274
ag274
ag274
ag274
ag274
ag274
ag274
ag274
ag274
ag274
ag274
ag274
ag274
ag274
ag274
ag274
ag274
ag274
ag274
ag274
ag274
ag274
ag274
ag274
ag274
ag274
ag274
ag269
ag269
ag269
ag274
ag274
ag274
ag274
ag274
ag274
ag274
ag274
ag274
ag274
ag274
ag274
ag274
ag274
ag274
ag274
ag274
ag274
ag274
ag274
ag274
ag274
ag274
ag274
ag274
ag274
ag274
ag274
ag274
ag274
ag274
ag274
ag274
ag274
ag274
ag274
ag274
ag274
ag274
ag274
ag274
ag274
ag274
atp1857
a((lp1858
S'264'
p1859
aI0
aI1
aI129
aI233
ag1752
a(lp1860
g69
ag269
ag269
ag269
ag269
ag274
ag274
ag274
ag274
ag274
ag274
ag274
ag274
ag274
ag274
ag274
ag274
ag274
ag274
ag274
ag274
atp1861
a((lp1862
S'26'
p1863
aI0
aI1
aI0
aI299
ag1752
a(lp1864
g269
ag269
ag269
ag274
ag274
ag274
ag274
ag274
ag274
ag274
ag274
ag274
ag274
ag274
ag274
ag274
ag274
ag274
ag274
ag274
ag274
ag274
ag274
ag274
ag274
ag274
ag274
ag274
ag274
ag274
ag274
ag274
ag274
ag274
ag274
ag274
ag274
ag274
ag274
ag274
ag274
ag274
ag274
ag274
ag274
ag274
ag274
ag274
ag274
ag274
ag274
ag274
ag274
ag274
ag274
ag274
ag274
ag274
ag274
ag274
atp1865
a((lp1866
S'281'
p1867
aI0
aI1
aI436
aI475
ag1752
a(lp1868
g269
ag274
ag274
ag274
ag274
ag274
ag274
ag274
atp1869
a((lp1870
S'43'
p1871
aI0
aI1
aI125
aI164
ag1752
a(lp1872
g69
ag69
ag270
ag270
ag270
ag274
ag274
ag274
atp1873
a((lp1874
g1871
aI1
aI2
aI125
aI164
ag1752
a(lp1875
g69
ag269
ag269
ag269
ag269
ag274
ag274
ag274
atp1876
a((lp1877
S'50'
p1878
aI0
aI1
aI218
aI282
ag1752
a(lp1879
g7
ag69
ag269
ag274
ag274
ag274
ag274
ag274
ag274
ag274
ag274
ag274
ag274
atp1880
a((lp1881
S'66'
p1882
aI0
aI1
aI679
aI863
ag1752
a(lp1883
g274
ag274
ag274
ag274
ag274
ag274
ag274
ag274
ag274
ag274
ag274
ag274
ag274
ag274
ag274
ag274
ag274
ag274
ag274
ag274
ag274
ag274
ag274
ag274
ag274
ag274
ag274
ag274
ag274
ag274
ag274
ag274
ag274
ag274
ag274
ag274
ag274
atp1884
a((lp1885
S'67'
p1886
aI0
aI1
aI0
aI519
ag1752
a(lp1887
g269
ag269
ag269
ag269
ag269
ag269
ag269
ag269
ag269
ag269
ag269
ag269
ag269
ag274
ag274
ag274
ag274
ag274
ag274
ag274
ag274
ag274
ag274
ag274
ag274
ag274
ag274
ag274
ag274
ag274
ag274
ag274
ag269
ag269
ag269
ag269
ag269
ag269
ag269
ag269
ag269
ag269
ag269
ag269
ag269
ag269
ag269
ag269
ag269
ag269
ag269
ag269
ag269
ag269
ag274
ag274
ag274
ag274
ag274
ag274
ag274
ag274
ag274
ag274
ag274
ag274
ag274
ag274
ag274
ag274
ag274
ag274
ag269
ag274
ag274
ag274
ag274
ag274
ag274
ag274
ag274
ag274
ag274
ag274
ag274
ag274
ag274
ag274
ag274
ag274
ag274
ag274
ag274
ag274
ag274
ag274
ag274
ag274
ag274
ag274
ag274
ag274
ag274
ag274
atp1888
a((lp1889
S'68'
p1890
aI0
aI1
aI0
aI469
ag1752
a(lp1891
g274
ag274
ag274
ag274
ag274
ag274
ag274
ag274
ag274
ag274
ag274
ag274
ag274
ag274
ag274
ag274
ag274
ag274
ag274
ag274
ag274
ag274
ag274
ag274
ag274
ag274
ag274
ag274
ag274
ag274
ag274
ag274
ag274
ag274
ag274
ag274
ag274
ag274
ag274
ag274
ag274
ag274
ag274
ag274
ag274
ag274
ag274
ag274
ag274
ag274
ag269
ag269
ag269
ag269
ag269
ag269
ag269
ag269
ag269
ag274
ag274
ag274
ag274
ag274
ag274
ag274
ag274
ag274
ag274
ag274
ag274
ag274
ag274
ag274
ag274
ag274
ag274
ag274
ag274
ag274
ag274
ag274
ag274
ag274
ag274
ag274
ag274
ag274
ag274
ag274
ag274
ag274
ag274
ag274
atp1892
a((lp1893
S'69'
p1894
aI0
aI1
aI0
aI549
ag1752
a(lp1895
g274
ag274
ag274
ag274
ag274
ag274
ag274
ag274
ag274
ag274
ag274
ag274
ag274
ag274
ag274
ag274
ag274
ag274
ag274
ag274
ag274
ag274
ag274
ag274
ag274
ag274
ag274
ag274
ag274
ag274
ag274
ag274
ag274
ag274
ag274
ag274
ag274
ag274
ag274
ag274
ag274
ag274
ag274
ag274
ag274
ag274
ag274
ag274
ag274
ag274
ag274
ag274
ag274
ag274
ag274
ag274
ag274
ag274
ag274
ag274
ag274
ag274
ag274
ag274
ag274
ag274
ag274
ag274
ag274
ag274
ag274
ag274
ag274
ag274
ag274
ag274
ag274
ag274
ag274
ag274
ag274
ag274
ag274
ag274
ag274
ag274
ag274
ag274
ag274
ag274
ag274
ag274
ag274
ag274
ag274
ag274
ag274
ag274
ag274
ag274
ag274
ag274
ag274
ag274
ag274
ag274
ag274
ag274
ag274
ag274
atp1896
a((lp1897
S'70'
p1898
aI0
aI1
aI0
aI669
ag1752
a(lp1899
g274
ag274
ag274
ag274
ag274
ag274
ag274
ag274
ag274
ag274
ag274
ag274
ag274
ag274
ag274
ag274
ag274
ag274
ag274
ag274
ag274
ag274
ag274
ag274
ag274
ag7
ag69
ag269
ag269
ag274
ag274
ag274
ag274
ag274
ag274
ag274
ag274
ag274
ag274
ag274
ag274
ag274
ag274
ag274
ag274
ag274
ag274
ag274
ag274
ag274
ag274
ag274
ag274
ag274
ag274
ag274
ag274
ag274
ag274
ag274
ag274
ag274
ag274
ag274
ag69
ag269
ag269
ag269
ag269
ag269
ag7
ag274
ag274
ag274
ag274
ag274
ag274
ag274
ag274
ag274
ag274
ag274
ag274
ag274
ag274
ag274
ag274
ag274
ag274
ag274
ag274
ag274
ag274
ag274
ag274
ag274
ag274
ag274
ag274
ag274
ag274
ag274
ag274
ag274
ag274
ag274
ag274
ag274
ag274
ag274
ag274
ag274
ag274
ag274
ag274
ag274
ag274
ag274
ag274
ag274
ag274
ag274
ag274
ag274
ag274
ag274
ag274
ag274
ag274
ag274
ag274
ag274
ag274
ag269
atp1900
a((lp1901
S'72'
p1902
aI0
aI1
aI0
aI559
ag1752
a(lp1903
g7
ag7
ag7
ag7
ag69
ag269
ag274
ag274
ag274
ag274
ag274
ag274
ag274
ag274
ag274
ag274
ag274
ag274
ag274
ag274
ag274
ag274
ag274
ag274
ag274
ag274
ag274
ag274
ag274
ag274
ag274
ag274
ag274
ag274
ag274
ag274
ag274
ag274
ag274
ag274
ag274
ag274
ag274
ag274
ag274
ag274
ag274
ag274
ag274
ag274
ag274
ag274
ag274
ag7
ag274
ag274
ag274
ag274
ag274
ag274
ag274
ag274
ag274
ag274
ag274
ag274
ag274
ag274
ag274
ag274
ag274
ag274
ag274
ag274
ag274
ag274
ag274
ag274
ag274
ag274
ag274
ag274
ag274
ag274
ag274
ag274
ag274
ag274
ag274
ag274
ag274
ag274
ag274
ag274
ag274
ag269
ag69
ag274
ag274
ag274
ag274
ag274
ag274
ag274
ag274
ag274
ag274
ag274
ag274
ag274
ag274
ag274
atp1904
a((lp1905
S'73'
p1906
aI0
aI1
aI0
aI299
ag1752
a(lp1907
g274
ag274
ag274
ag274
ag274
ag274
ag274
ag274
ag274
ag274
ag274
ag274
ag274
ag274
ag274
ag274
ag274
ag274
ag274
ag274
ag274
ag274
ag274
ag274
ag69
ag269
ag274
ag274
ag274
ag274
ag274
ag274
ag274
ag274
ag274
ag274
ag274
ag274
ag274
ag274
ag274
ag274
ag274
ag274
ag274
ag274
ag274
ag274
ag274
ag274
ag274
ag274
ag274
ag274
ag274
ag274
ag274
ag274
ag274
ag274
atp1908
a((lp1909
S'74'
p1910
aI0
aI1
aI0
aI109
ag1752
a(lp1911
g274
ag274
ag274
ag274
ag274
ag274
ag274
ag274
ag274
ag274
ag274
ag274
ag274
ag274
ag274
ag274
ag274
ag274
ag274
ag274
ag274
ag274
atp1912
a((lp1913
S'75'
p1914
aI0
aI1
aI0
aI244
ag1752
a(lp1915
g274
ag274
ag274
ag274
ag274
ag274
ag274
ag274
ag274
ag274
ag274
ag274
ag274
ag274
ag274
ag274
ag274
ag274
ag274
ag274
ag274
ag274
ag274
ag274
ag274
ag274
ag274
ag274
ag274
ag274
ag274
ag274
ag274
ag274
ag274
ag274
ag274
ag274
ag274
ag274
ag274
ag274
ag274
ag274
ag274
ag274
ag274
ag274
ag274
atp1916
a((lp1917
S'78'
p1918
aI0
aI1
aI0
aI49
ag1752
a(lp1919
g274
ag274
ag274
ag274
ag274
ag274
ag274
ag274
ag274
ag274
atp1920
a((lp1921
g1918
aI0
aI1
aI72
aI236
ag1752
a(lp1922
g274
ag274
ag274
ag274
ag274
ag274
ag274
ag7
ag69
ag269
ag269
ag269
ag69
ag274
ag274
ag274
ag274
ag274
ag274
ag274
ag274
ag274
ag274
ag274
ag274
ag274
ag274
ag274
ag274
ag274
ag274
ag274
ag274
atp1923
a((lp1924
S'79'
p1925
aI0
aI1
aI22
aI81
ag1752
a(lp1926
g274
ag274
ag274
ag274
ag274
ag274
ag274
ag274
ag274
ag274
ag274
ag274
atp1927
a((lp1928
g1925
aI0
aI1
aI115
aI119
ag1752
a(lp1929
g274
atp1930
a((lp1931
S'80'
p1932
aI0
aI1
aI41
aI65
ag1752
a(lp1933
g274
ag274
ag274
ag274
ag274
atp1934
a((lp1935
g1932
aI0
aI1
aI92
aI131
ag1752
a(lp1936
g274
ag274
ag274
ag274
ag274
ag274
ag274
ag274
atp1937
a((lp1938
S'81'
p1939
aI0
aI1
aI0
aI144
ag1752
a(lp1940
g269
ag269
ag269
ag269
ag269
ag269
ag269
ag274
ag274
ag274
ag274
ag274
ag274
ag274
ag274
ag274
ag274
ag274
ag274
ag274
ag274
ag274
ag274
ag274
ag274
ag274
ag274
ag274
ag274
atp1941
a((lp1942
S'82'
p1943
aI0
aI1
aI0
aI149
ag1752
a(lp1944
g269
ag269
ag269
ag274
ag274
ag274
ag274
ag274
ag274
ag274
ag274
ag274
ag274
ag274
ag274
ag274
ag274
ag274
ag274
ag274
ag274
ag274
ag274
ag274
ag274
ag274
ag274
ag274
ag274
ag274
atp1945
a((lp1946
S'84'
p1947
aI0
aI1
aI89
aI168
ag1752
a(lp1948
g274
ag274
ag274
ag274
ag274
ag274
ag274
ag274
ag274
ag274
ag274
ag274
ag274
ag274
ag274
ag274
atp1949
a((lp1950
S'85'
p1951
aI0
aI1
aI15
aI134
ag1752
a(lp1952
g274
ag274
ag274
ag274
ag274
ag274
ag274
ag274
ag274
ag274
ag274
ag274
ag274
ag274
ag274
ag274
ag274
ag274
ag274
ag274
ag274
ag274
ag274
ag274
atp1953
a((lp1954
S'92'
p1955
aI0
aI1
aI16
aI55
ag1752
a(lp1956
g274
ag274
ag274
ag274
ag274
ag274
ag274
ag274
atp1957
a((lp1958
S'96'
p1959
aI0
aI1
aI67
aI116
ag1752
a(lp1960
g274
ag274
ag274
ag274
ag274
ag274
ag274
ag274
ag274
ag274
atp1961
a((lp1962
S'97'
p1963
aI0
aI1
aI386
aI525
ag1752
a(lp1964
g274
ag274
ag274
ag274
ag274
ag274
ag274
ag274
ag274
ag274
ag274
ag274
ag274
ag274
ag274
ag274
ag274
ag274
ag274
ag274
ag274
ag274
ag274
ag274
ag274
ag274
ag274
ag274
atp1965
asS'MutualGaze'
p1966
(lp1967
((lp1968
S'104'
p1969
aI0
aI2
aI116
aI215
aS'MutualGaze'
p1970
a(lp1971
g269
ag269
ag269
ag269
ag269
ag269
ag269
ag269
ag269
ag269
ag269
ag269
ag269
ag269
ag269
ag269
ag269
ag269
ag269
ag269
atp1972
a((lp1973
S'105'
p1974
aI0
aI1
aI0
aI34
ag1970
a(lp1975
g269
ag269
ag269
ag269
ag269
ag269
ag269
atp1976
a((lp1977
S'108'
p1978
aI0
aI1
aI230
aI239
ag1970
a(lp1979
g269
ag269
atp1980
a((lp1981
S'110'
p1982
aI0
aI1
aI189
aI308
ag1970
a(lp1983
g269
ag269
ag269
ag269
ag269
ag269
ag274
ag274
ag274
ag269
ag269
ag269
ag269
ag269
ag269
ag269
ag269
ag269
ag269
ag269
ag269
ag269
ag269
ag269
atp1984
a((lp1985
g1982
aI0
aI1
aI326
aI350
ag1970
a(lp1986
g269
ag269
ag269
ag269
ag269
atp1987
a((lp1988
S'111'
p1989
aI0
aI1
aI92
aI106
ag1970
a(lp1990
g269
ag269
ag269
atp1991
a((lp1992
g1989
aI0
aI1
aI227
aI266
ag1970
a(lp1993
g269
ag269
ag269
ag269
ag269
ag269
ag269
ag269
atp1994
a((lp1995
g1989
aI0
aI1
aI364
aI378
ag1970
a(lp1996
g269
ag269
ag269
atp1997
a((lp1998
S'114'
p1999
aI0
aI2
aI114
aI118
ag1970
a(lp2000
g269
atp2001
a((lp2002
g1999
aI0
aI2
aI295
aI319
ag1970
a(lp2003
g269
ag269
ag269
ag269
ag269
atp2004
a((lp2005
S'117'
p2006
aI1
aI2
aI153
aI177
ag1970
a(lp2007
g269
ag269
ag269
ag269
ag269
atp2008
a((lp2009
S'118'
p2010
aI0
aI1
aI59
aI178
ag1970
a(lp2011
g269
ag269
ag269
ag269
ag269
ag269
ag269
ag269
ag269
ag269
ag269
ag269
ag269
ag269
ag269
ag269
ag269
ag269
ag269
ag269
ag269
ag269
ag269
ag269
atp2012
a((lp2013
S'119'
p2014
aI0
aI1
aI68
aI112
ag1970
a(lp2015
g7
ag269
ag269
ag269
ag269
ag269
ag269
ag269
ag269
atp2016
a((lp2017
S'120'
p2018
aI0
aI1
aI67
aI201
ag1970
a(lp2019
g269
ag269
ag269
ag269
ag269
ag269
ag269
ag269
ag269
ag269
ag269
ag269
ag269
ag269
ag269
ag269
ag269
ag269
ag269
ag269
ag269
ag269
ag269
ag269
ag269
ag269
ag269
atp2020
a((lp2021
g2018
aI0
aI1
aI236
aI410
ag1970
a(lp2022
g69
ag269
ag269
ag269
ag269
ag269
ag269
ag269
ag269
ag269
ag269
ag269
ag269
ag269
ag269
ag269
ag269
ag269
ag269
ag269
ag269
ag269
ag269
ag69
ag7
ag7
ag7
ag7
ag69
ag269
ag269
ag269
ag269
ag269
ag269
atp2023
a((lp2024
S'121'
p2025
aI0
aI1
aI0
aI59
ag1970
a(lp2026
g69
ag269
ag269
ag269
ag269
ag269
ag269
ag269
ag269
ag269
ag269
ag269
atp2027
a((lp2028
g2025
aI0
aI1
aI355
aI364
ag1970
a(lp2029
g269
ag269
atp2030
a((lp2031
S'122'
p2032
aI1
aI2
aI18
aI47
ag1970
a(lp2033
g69
ag269
ag269
ag269
ag269
ag269
atp2034
a((lp2035
S'123'
p2036
aI0
aI1
aI19
aI28
ag1970
a(lp2037
g269
ag269
atp2038
a((lp2039
g2036
aI0
aI1
aI164
aI168
ag1970
a(lp2040
g269
atp2041
a((lp2042
S'124'
p2043
aI0
aI1
aI165
aI179
ag1970
a(lp2044
g269
ag269
ag269
atp2045
a((lp2046
S'125'
p2047
aI0
aI1
aI240
aI549
ag1970
a(lp2048
g269
ag269
ag269
ag269
ag269
ag269
ag269
ag269
ag269
ag269
ag269
ag269
ag269
ag269
ag269
ag269
ag269
ag269
ag269
ag269
ag269
ag269
ag269
ag269
ag269
ag269
ag269
ag269
ag269
ag269
ag269
ag269
ag269
ag269
ag269
ag269
ag269
ag269
ag269
ag269
ag269
ag269
ag269
ag269
ag269
ag269
ag269
ag269
ag269
ag269
ag269
ag269
ag269
ag269
ag269
ag269
ag269
ag269
ag269
ag269
ag269
ag269
atp2049
a((lp2050
S'126'
p2051
aI0
aI1
aI50
aI344
ag1970
a(lp2052
g269
ag269
ag269
ag269
ag269
ag269
ag269
ag269
ag269
ag269
ag269
ag269
ag269
ag269
ag269
ag269
ag269
ag269
ag269
ag269
ag269
ag269
ag269
ag269
ag269
ag269
ag269
ag269
ag269
ag269
ag269
ag269
ag269
ag269
ag269
ag269
ag269
ag269
ag269
ag269
ag269
ag269
ag269
ag269
ag269
ag269
ag269
ag269
ag269
ag269
ag269
ag269
ag269
ag269
ag269
ag269
ag269
ag269
ag269
atp2053
a((lp2054
S'12'
p2055
aI0
aI1
aI532
aI911
ag1970
a(lp2056
g269
ag269
ag269
ag269
ag269
ag269
ag269
ag269
ag269
ag269
ag269
ag1214
ag1214
ag1214
ag1214
ag1214
ag269
ag269
ag577
ag577
ag577
ag577
ag577
ag577
ag577
ag269
ag269
ag269
ag269
ag269
ag269
ag269
ag269
ag269
ag269
ag269
ag269
ag269
ag269
ag269
ag269
ag269
ag269
ag269
ag269
ag269
ag269
ag269
ag269
ag269
ag269
ag269
ag269
ag269
ag269
ag269
ag269
ag269
ag269
ag269
ag269
ag269
ag269
ag269
ag269
ag269
ag269
ag269
ag269
ag274
ag274
ag274
ag274
ag274
ag274
ag274
atp2057
a((lp2058
S'130'
p2059
aI0
aI1
aI0
aI79
ag1970
a(lp2060
g269
ag269
ag269
ag269
ag269
ag269
ag269
ag269
ag269
ag269
ag269
ag269
ag269
ag269
ag269
ag269
atp2061
a((lp2062
g2059
aI0
aI1
aI90
aI144
ag1970
a(lp2063
g269
ag269
ag269
ag269
ag269
ag269
ag269
ag269
ag269
ag269
ag269
atp2064
a((lp2065
S'133'
p2066
aI0
aI1
aI150
aI209
ag1970
a(lp2067
g269
ag269
ag269
ag269
ag269
ag269
ag269
ag269
ag269
ag269
ag269
ag69
atp2068
a((lp2069
S'134'
p2070
aI0
aI1
aI180
aI189
ag1970
a(lp2071
g269
ag269
atp2072
a((lp2073
S'136'
p2074
aI0
aI1
aI100
aI119
ag1970
a(lp2075
g269
ag269
ag269
ag269
atp2076
a((lp2077
g2074
aI0
aI1
aI250
aI319
ag1970
a(lp2078
g269
ag269
ag269
ag269
ag269
ag269
ag269
ag269
ag269
ag269
ag269
ag269
ag269
ag269
atp2079
a((lp2080
S'138'
p2081
aI0
aI1
aI0
aI189
ag1970
a(lp2082
g269
ag269
ag274
ag274
ag274
ag274
ag269
ag269
ag269
ag269
ag269
ag269
ag269
ag269
ag269
ag269
ag269
ag269
ag269
ag269
ag269
ag269
ag269
ag269
ag269
ag269
ag269
ag269
ag269
ag269
ag269
ag269
ag269
ag269
ag269
ag269
ag269
ag269
atp2083
a((lp2084
S'139'
p2085
aI0
aI2
aI190
aI374
ag1970
a(lp2086
g269
ag269
ag269
ag269
ag269
ag269
ag269
ag269
ag269
ag269
ag269
ag269
ag269
ag269
ag269
ag269
ag269
ag269
ag269
ag269
ag69
ag69
ag270
ag270
ag270
ag270
ag270
ag270
ag69
ag69
ag269
ag269
ag269
ag269
ag269
ag269
ag269
atp2087
a((lp2088
S'13'
p2089
aI0
aI1
aI448
aI672
ag1970
a(lp2090
g269
ag269
ag269
ag269
ag269
ag269
ag269
ag269
ag269
ag269
ag269
ag269
ag269
ag269
ag269
ag269
ag269
ag269
ag269
ag269
ag269
ag269
ag269
ag269
ag269
ag269
ag269
ag269
ag269
ag269
ag269
ag269
ag269
ag269
ag269
ag269
ag269
ag269
ag269
ag269
ag269
ag269
ag269
ag269
ag269
atp2091
a((lp2092
S'141'
p2093
aI0
aI1
aI60
aI189
ag1970
a(lp2094
g269
ag269
ag269
ag269
ag269
ag269
ag269
ag269
ag269
ag269
ag269
ag269
ag269
ag269
ag274
ag274
ag7
ag7
ag269
ag269
ag269
ag269
ag269
ag269
ag269
ag269
atp2095
a((lp2096
S'142'
p2097
aI0
aI1
aI30
aI89
ag1970
a(lp2098
g269
ag269
ag269
ag269
ag269
ag269
ag269
ag269
ag269
ag269
ag269
ag269
atp2099
a((lp2100
S'143'
p2101
aI0
aI1
aI0
aI59
ag1970
a(lp2102
g269
ag269
ag269
ag269
ag269
ag269
ag269
ag269
ag269
ag269
ag269
ag269
atp2103
a((lp2104
S'146'
p2105
aI0
aI2
aI0
aI219
ag1970
a(lp2106
g269
ag269
ag269
ag269
ag269
ag269
ag269
ag269
ag269
ag269
ag269
ag269
ag269
ag269
ag269
ag269
ag269
ag269
ag269
ag269
ag269
ag269
ag269
ag269
ag269
ag269
ag269
ag269
ag269
ag269
ag269
ag269
ag269
ag269
ag269
ag269
ag269
ag269
ag269
ag269
ag269
ag269
ag269
ag269
atp2107
a((lp2108
S'147'
p2109
aI0
aI1
aI210
aI254
ag1970
a(lp2110
g269
ag269
ag269
ag269
ag269
ag269
ag7
ag7
ag269
atp2111
a((lp2112
S'151'
p2113
aI0
aI1
aI0
aI264
ag1970
a(lp2114
g7
ag7
ag7
ag7
ag269
ag269
ag269
ag269
ag269
ag269
ag269
ag269
ag269
ag269
ag269
ag269
ag269
ag269
ag269
ag269
ag269
ag269
ag269
ag269
ag7
ag7
ag274
ag274
ag274
ag274
ag274
ag274
ag269
ag269
ag269
ag269
ag269
ag269
ag269
ag269
ag269
ag269
ag269
ag269
ag269
ag269
ag269
ag269
ag269
ag269
ag269
ag269
ag269
atp2115
a((lp2116
S'152'
p2117
aI0
aI1
aI180
aI214
ag1970
a(lp2118
g269
ag269
ag269
ag269
ag269
ag269
ag269
atp2119
a((lp2120
S'156'
p2121
aI0
aI1
aI0
aI59
ag1970
a(lp2122
g269
ag269
ag269
ag269
ag269
ag269
ag269
ag269
ag269
ag269
ag7
ag7
atp2123
a((lp2124
S'157'
p2125
aI0
aI1
aI120
aI159
ag1970
a(lp2126
g269
ag269
ag269
ag269
ag269
ag269
ag269
ag269
atp2127
a((lp2128
S'159'
p2129
aI0
aI2
aI0
aI209
ag1970
a(lp2130
g7
ag7
ag69
ag269
ag269
ag269
ag269
ag269
ag269
ag269
ag269
ag269
ag269
ag269
ag269
ag269
ag269
ag69
ag7
ag7
ag269
ag269
ag269
ag269
ag269
ag269
ag269
ag269
ag269
ag269
ag269
ag269
ag269
ag269
ag269
ag269
ag269
ag269
ag269
ag269
ag269
ag269
atp2131
a((lp2132
S'160'
p2133
aI0
aI1
aI0
aI364
ag1970
a(lp2134
g269
ag269
ag269
ag269
ag269
ag269
ag274
ag274
ag274
ag274
ag274
ag274
ag274
ag274
ag269
ag269
ag269
ag269
ag269
ag269
ag269
ag269
ag269
ag269
ag269
ag269
ag269
ag269
ag269
ag269
ag269
ag269
ag269
ag269
ag269
ag269
ag269
ag269
ag269
ag269
ag269
ag269
ag269
ag269
ag269
ag269
ag269
ag269
ag269
ag269
ag269
ag269
ag269
ag269
ag269
ag269
ag269
ag269
ag269
ag269
ag269
ag269
ag269
ag269
ag269
ag269
ag269
ag269
ag269
ag269
ag269
ag269
ag269
atp2135
a((lp2136
S'163'
p2137
aI0
aI1
aI98
aI127
ag1970
a(lp2138
g269
ag269
ag269
ag269
ag269
ag269
atp2139
a((lp2140
S'169'
p2141
aI0
aI1
aI0
aI4
ag1970
a(lp2142
g269
atp2143
a((lp2144
g2141
aI0
aI2
aI9
aI28
ag1970
a(lp2145
g269
ag269
ag269
ag269
atp2146
a((lp2147
g2141
aI0
aI1
aI35
aI54
ag1970
a(lp2148
g269
ag269
ag269
ag269
atp2149
a((lp2150
S'16'
p2151
aI0
aI1
aI186
aI230
ag1970
a(lp2152
g269
ag269
ag269
ag269
ag269
ag269
ag269
ag69
ag7
atp2153
a((lp2154
g2151
aI0
aI1
aI259
aI273
ag1970
a(lp2155
g269
ag269
ag269
atp2156
a((lp2157
S'170'
p2158
aI0
aI1
aI9
aI18
ag1970
a(lp2159
g269
ag269
atp2160
a((lp2161
S'171'
p2162
aI0
aI1
aI0
aI44
ag1970
a(lp2163
g269
ag269
ag269
ag269
ag269
ag269
ag269
ag269
ag269
atp2164
a((lp2165
g2162
aI0
aI1
aI89
aI133
ag1970
a(lp2166
g269
ag269
ag269
ag269
ag269
ag269
ag269
ag269
ag269
atp2167
a((lp2168
g2162
aI1
aI2
aI136
aI170
ag1970
a(lp2169
g69
ag269
ag269
ag269
ag269
ag269
ag269
atp2170
a((lp2171
S'174'
p2172
aI0
aI1
aI67
aI216
ag1970
a(lp2173
g269
ag269
ag269
ag269
ag269
ag269
ag269
ag269
ag269
ag269
ag269
ag269
ag269
ag269
ag269
ag269
ag269
ag269
ag269
ag269
ag269
ag269
ag269
ag269
ag269
ag269
ag269
ag269
ag269
ag269
atp2174
a((lp2175
S'180'
p2176
aI0
aI1
aI40
aI49
ag1970
a(lp2177
g269
ag269
atp2178
a((lp2179
S'181'
p2180
aI0
aI1
aI0
aI44
ag1970
a(lp2181
g269
ag269
ag269
ag269
ag269
ag269
ag269
ag269
ag269
atp2182
a((lp2183
g2180
aI0
aI1
aI283
aI302
ag1970
a(lp2184
g269
ag269
ag269
ag269
atp2185
a((lp2186
S'182'
p2187
aI0
aI1
aI0
aI479
ag1970
a(lp2188
g269
ag269
ag269
ag269
ag269
ag269
ag269
ag269
ag269
ag269
ag269
ag269
ag269
ag269
ag269
ag269
ag269
ag269
ag269
ag269
ag269
ag269
ag269
ag269
ag269
ag269
ag269
ag269
ag269
ag269
ag269
ag269
ag269
ag269
ag269
ag269
ag269
ag269
ag269
ag269
ag269
ag269
ag269
ag269
ag269
ag274
ag274
ag274
ag274
ag274
ag274
ag274
ag274
ag269
ag269
ag269
ag269
ag269
ag269
ag269
ag269
ag269
ag269
ag269
ag269
ag269
ag269
ag269
ag269
ag269
ag269
ag269
ag269
ag269
ag269
ag269
ag269
ag269
ag269
ag269
ag269
ag269
ag269
ag269
ag269
ag269
ag269
ag269
ag269
ag269
ag269
ag269
ag269
ag269
ag269
ag269
atp2189
a((lp2190
S'183'
p2191
aI0
aI1
aI295
aI634
ag1970
a(lp2192
g269
ag269
ag269
ag269
ag269
ag269
ag269
ag269
ag269
ag269
ag269
ag269
ag269
ag269
ag269
ag269
ag269
ag269
ag269
ag269
ag269
ag269
ag269
ag269
ag269
ag269
ag269
ag269
ag269
ag269
ag269
ag269
ag269
ag269
ag269
ag269
ag269
ag269
ag269
ag269
ag269
ag269
ag269
ag269
ag269
ag269
ag269
ag269
ag269
ag269
ag269
ag269
ag269
ag269
ag69
ag7
ag7
ag69
ag269
ag269
ag269
ag269
ag269
ag269
ag269
ag269
ag269
ag269
atp2193
a((lp2194
S'188'
p2195
aI0
aI1
aI232
aI251
ag1970
a(lp2196
g269
ag269
ag269
ag69
atp2197
a((lp2198
g2195
aI0
aI2
aI293
aI417
ag1970
a(lp2199
g269
ag269
ag269
ag269
ag269
ag269
ag269
ag269
ag269
ag269
ag269
ag269
ag269
ag269
ag269
ag269
ag269
ag269
ag269
ag269
ag269
ag269
ag269
ag269
ag269
atp2200
a((lp2201
g2195
aI0
aI1
aI433
aI452
ag1970
a(lp2202
g269
ag269
ag269
ag269
atp2203
a((lp2204
S'190'
p2205
aI0
aI1
aI21
aI180
ag1970
a(lp2206
g269
ag269
ag269
ag269
ag269
ag269
ag269
ag269
ag269
ag269
ag269
ag269
ag269
ag269
ag269
ag269
ag269
ag269
ag269
ag269
ag269
ag269
ag69
ag7
ag269
ag269
ag269
ag269
ag269
ag269
ag269
ag269
atp2207
a((lp2208
g2205
aI0
aI1
aI283
aI492
ag1970
a(lp2209
g69
ag269
ag269
ag269
ag269
ag269
ag269
ag269
ag269
ag269
ag269
ag269
ag269
ag269
ag269
ag269
ag269
ag269
ag7
ag7
ag269
ag269
ag269
ag269
ag269
ag269
ag269
ag269
ag269
ag269
ag269
ag69
ag269
ag269
ag269
ag269
ag269
ag269
ag269
ag269
ag269
ag269
atp2210
a((lp2211
S'191'
p2212
aI0
aI1
aI0
aI259
ag1970
a(lp2213
g269
ag269
ag269
ag269
ag269
ag269
ag269
ag269
ag269
ag269
ag269
ag269
ag269
ag269
ag269
ag269
ag269
ag274
ag274
ag274
ag269
ag269
ag269
ag269
ag269
ag269
ag269
ag269
ag269
ag269
ag269
ag269
ag269
ag269
ag269
ag269
ag269
ag269
ag274
ag274
ag274
ag274
ag269
ag269
ag269
ag269
ag274
ag274
ag274
ag274
ag274
ag274
atp2214
a((lp2215
g2212
aI0
aI1
aI274
aI488
ag1970
a(lp2216
g274
ag274
ag269
ag269
ag269
ag269
ag269
ag269
ag269
ag269
ag269
ag269
ag269
ag269
ag269
ag269
ag269
ag269
ag274
ag274
ag269
ag269
ag269
ag269
ag269
ag269
ag269
ag269
ag269
ag269
ag269
ag269
ag269
ag269
ag269
ag269
ag269
ag269
ag274
ag274
ag274
ag274
ag274
atp2217
a((lp2218
S'192'
p2219
aI0
aI1
aI126
aI145
ag1970
a(lp2220
g269
ag269
ag269
ag269
atp2221
a((lp2222
S'196'
p2223
aI0
aI3
aI448
aI497
ag1970
a(lp2224
g269
ag269
ag269
ag269
ag269
ag269
ag269
ag269
ag269
ag269
atp2225
a((lp2226
S'215'
p2227
aI0
aI1
aI0
aI64
ag1970
a(lp2228
g269
ag269
ag269
ag269
ag269
ag269
ag269
ag269
ag269
ag269
ag269
ag269
ag269
atp2229
a((lp2230
S'217'
p2231
aI0
aI1
aI234
aI278
ag1970
a(lp2232
g269
ag269
ag269
ag269
ag269
ag269
ag269
ag269
ag269
atp2233
a((lp2234
S'229'
p2235
aI1
aI2
aI42
aI51
ag1970
a(lp2236
g269
ag269
atp2237
a((lp2238
S'239'
p2239
aI0
aI2
aI110
aI159
ag1970
a(lp2240
g269
ag269
ag269
ag269
ag269
ag269
ag269
ag269
ag269
ag269
atp2241
a((lp2242
S'241'
p2243
aI0
aI1
aI0
aI29
ag1970
a(lp2244
g269
ag269
ag269
ag269
ag269
ag269
atp2245
a((lp2246
g2243
aI0
aI1
aI290
aI319
ag1970
a(lp2247
g274
ag269
ag269
ag269
ag269
ag269
atp2248
a((lp2249
S'245'
p2250
aI0
aI1
aI50
aI129
ag1970
a(lp2251
g7
ag7
ag269
ag269
ag269
ag269
ag269
ag269
ag269
ag269
ag269
ag269
ag269
ag269
ag7
ag7
atp2252
a((lp2253
g2250
aI0
aI1
aI320
aI369
ag1970
a(lp2254
g269
ag269
ag269
ag269
ag269
ag269
ag269
ag269
ag269
ag269
atp2255
a((lp2256
S'248'
p2257
aI0
aI1
aI0
aI69
ag1970
a(lp2258
g269
ag269
ag269
ag269
ag269
ag269
ag269
ag269
ag269
ag269
ag269
ag269
ag269
ag269
atp2259
a((lp2260
S'249'
p2261
aI0
aI1
aI0
aI339
ag1970
a(lp2262
g269
ag269
ag269
ag269
ag269
ag269
ag269
ag269
ag269
ag269
ag269
ag269
ag269
ag269
ag269
ag269
ag269
ag269
ag269
ag269
ag269
ag269
ag269
ag269
ag269
ag269
ag269
ag269
ag269
ag269
ag269
ag269
ag269
ag269
ag269
ag269
ag269
ag269
ag269
ag269
ag269
ag269
ag269
ag269
ag269
ag269
ag269
ag269
ag269
ag269
ag269
ag269
ag7
ag7
ag7
ag7
ag7
ag7
ag269
ag269
ag269
ag269
ag269
ag269
ag269
ag269
ag269
ag269
atp2263
a((lp2264
S'252'
p2265
aI1
aI2
aI160
aI289
ag1970
a(lp2266
g269
ag269
ag269
ag269
ag269
ag269
ag269
ag269
ag269
ag269
ag269
ag269
ag269
ag269
ag269
ag269
ag269
ag269
ag269
ag269
ag269
ag269
ag269
ag269
ag269
ag269
atp2267
a((lp2268
g2265
aI0
aI1
aI290
aI299
ag1970
a(lp2269
g269
ag269
atp2270
a((lp2271
g2265
aI1
aI2
aI370
aI399
ag1970
a(lp2272
g269
ag269
ag269
ag269
ag269
ag269
atp2273
a((lp2274
g2265
aI0
aI1
aI400
aI409
ag1970
a(lp2275
g269
ag269
atp2276
a((lp2277
S'253'
p2278
aI0
aI1
aI280
aI349
ag1970
a(lp2279
g270
ag270
ag269
ag269
ag269
ag269
ag269
ag269
ag269
ag269
ag269
ag269
ag269
ag269
atp2280
a((lp2281
S'257'
p2282
aI0
aI1
aI0
aI134
ag1970
a(lp2283
g269
ag269
ag7
ag7
ag7
ag7
ag7
ag7
ag69
ag269
ag269
ag269
ag269
ag269
ag269
ag269
ag269
ag269
ag269
ag269
ag269
ag269
ag269
ag269
ag269
ag269
ag269
atp2284
a((lp2285
S'25'
p2286
aI0
aI1
aI0
aI99
ag1970
a(lp2287
g269
ag269
ag269
ag269
ag269
ag269
ag269
ag269
ag269
ag269
ag269
ag269
ag269
ag269
ag269
ag269
ag269
ag269
ag269
ag269
atp2288
a((lp2289
g2286
aI0
aI1
aI193
aI472
ag1970
a(lp2290
g7
ag69
ag269
ag269
ag269
ag269
ag269
ag269
ag269
ag269
ag269
ag269
ag269
ag269
ag269
ag269
ag269
ag269
ag269
ag269
ag269
ag269
ag269
ag269
ag269
ag269
ag269
ag269
ag269
ag269
ag269
ag269
ag269
ag269
ag269
ag269
ag269
ag269
ag269
ag269
ag269
ag269
ag269
ag269
ag269
ag269
ag269
ag269
ag269
ag69
ag7
ag69
ag269
ag269
ag269
ag69
atp2291
a((lp2292
S'267'
p2293
aI0
aI1
aI36
aI80
ag1970
a(lp2294
g269
ag269
ag269
ag269
ag269
ag269
ag269
ag269
ag269
atp2295
a((lp2296
S'26'
p2297
aI0
aI1
aI300
aI449
ag1970
a(lp2298
g269
ag269
ag269
ag269
ag7
ag7
ag7
ag7
ag7
ag7
ag269
ag269
ag269
ag269
ag269
ag269
ag269
ag269
ag269
ag269
ag269
ag269
ag269
ag269
ag269
ag269
ag269
ag269
ag269
ag269
atp2299
a((lp2300
S'274'
p2301
aI0
aI1
aI30
aI314
ag1970
a(lp2302
g269
ag269
ag269
ag69
ag269
ag269
ag269
ag269
ag269
ag269
ag269
ag269
ag269
ag269
ag269
ag269
ag269
ag269
ag269
ag269
ag269
ag269
ag269
ag269
ag269
ag269
ag269
ag269
ag269
ag269
ag269
ag269
ag269
ag269
ag269
ag269
ag269
ag269
ag269
ag269
ag269
ag269
ag269
ag269
ag269
ag269
ag269
ag269
ag269
ag269
ag269
ag269
ag269
ag269
ag269
ag269
ag269
atp2303
a((lp2304
S'275'
p2305
aI0
aI1
aI78
aI172
ag1970
a(lp2306
g269
ag269
ag269
ag269
ag269
ag269
ag269
ag269
ag269
ag269
ag269
ag269
ag269
ag269
ag269
ag269
ag269
ag269
ag269
atp2307
a((lp2308
S'276'
p2309
aI0
aI1
aI0
aI14
ag1970
a(lp2310
g269
ag269
ag269
atp2311
a((lp2312
g2309
aI0
aI1
aI65
aI89
ag1970
a(lp2313
g269
ag269
ag269
ag269
ag269
atp2314
a((lp2315
g2309
aI0
aI1
aI159
aI238
ag1970
a(lp2316
g269
ag269
ag269
ag269
ag269
ag269
ag269
ag269
ag269
ag269
ag269
ag269
ag269
ag269
ag269
ag269
atp2317
a((lp2318
g2309
aI0
aI1
aI300
aI374
ag1970
a(lp2319
g269
ag269
ag269
ag269
ag269
ag269
ag269
ag269
ag269
ag269
ag269
ag269
ag269
ag269
ag269
atp2320
a((lp2321
S'279'
p2322
aI0
aI1
aI45
aI299
ag1970
a(lp2323
g269
ag269
ag269
ag269
ag69
ag7
ag7
ag7
ag7
ag69
ag269
ag269
ag269
ag269
ag269
ag269
ag269
ag269
ag269
ag269
ag269
ag269
ag269
ag269
ag269
ag269
ag269
ag269
ag269
ag269
ag269
ag269
ag269
ag269
ag269
ag269
ag269
ag269
ag269
ag269
ag269
ag269
ag269
ag269
ag269
ag269
ag269
ag69
ag7
ag7
ag7
atp2324
a((lp2325
S'280'
p2326
aI0
aI1
aI15
aI64
ag1970
a(lp2327
g269
ag269
ag269
ag269
ag269
ag269
ag269
ag269
ag269
ag269
atp2328
a((lp2329
g2326
aI0
aI1
aI113
aI262
ag1970
a(lp2330
g269
ag269
ag269
ag269
ag269
ag269
ag269
ag269
ag269
ag269
ag269
ag269
ag269
ag269
ag269
ag269
ag269
ag269
ag269
ag269
ag269
ag269
ag269
ag269
ag269
ag269
ag269
ag269
ag269
ag269
atp2331
a((lp2332
g2326
aI0
aI1
aI433
aI447
ag1970
a(lp2333
g269
ag269
ag269
atp2334
a((lp2335
S'281'
p2336
aI0
aI1
aI0
aI434
ag1970
a(lp2337
g269
ag269
ag269
ag269
ag269
ag269
ag269
ag269
ag269
ag269
ag269
ag269
ag269
ag269
ag269
ag274
ag274
ag274
ag274
ag274
ag274
ag274
ag274
ag274
ag274
ag274
ag274
ag269
ag269
ag269
ag269
ag269
ag269
ag269
ag269
ag269
ag269
ag269
ag269
ag269
ag269
ag269
ag269
ag269
ag269
ag269
ag269
ag269
ag269
ag269
ag269
ag269
ag269
ag269
ag269
ag269
ag269
ag269
ag269
ag269
ag269
ag269
ag269
ag269
ag269
ag269
ag269
ag269
ag269
ag269
ag269
ag269
ag269
ag269
ag269
ag269
ag269
ag269
ag269
ag274
ag274
ag274
ag274
ag274
ag274
ag274
ag274
atp2338
a((lp2339
S'282'
p2340
aI0
aI1
aI0
aI39
ag1970
a(lp2341
g269
ag269
ag269
ag269
ag269
ag269
ag269
ag269
atp2342
a((lp2343
g2340
aI0
aI1
aI383
aI397
ag1970
a(lp2344
g269
ag269
ag269
atp2345
a((lp2346
S'286'
p2347
aI0
aI1
aI48
aI117
ag1970
a(lp2348
g269
ag269
ag269
ag269
ag269
ag269
ag269
ag269
ag269
ag269
ag269
ag269
ag269
ag269
atp2349
a((lp2350
g2347
aI0
aI1
aI349
aI353
ag1970
a(lp2351
g269
atp2352
a((lp2353
S'290'
p2354
aI0
aI2
aI192
aI201
ag1970
a(lp2355
g269
ag269
atp2356
a((lp2357
S'292'
p2358
aI0
aI2
aI86
aI105
ag1970
a(lp2359
g269
ag269
ag269
ag269
atp2360
a((lp2361
S'295'
p2362
aI0
aI1
aI0
aI39
ag1970
a(lp2363
g269
ag269
ag269
ag269
ag269
ag269
ag269
ag269
atp2364
a((lp2365
g2362
aI0
aI1
aI74
aI228
ag1970
a(lp2366
g269
ag269
ag69
ag69
ag69
ag69
ag269
ag269
ag269
ag269
ag269
ag269
ag269
ag269
ag269
ag269
ag269
ag269
ag269
ag269
ag269
ag269
ag269
ag269
ag269
ag269
ag269
ag269
ag269
ag269
ag269
atp2367
a((lp2368
S'29'
p2369
aI0
aI1
aI0
aI399
ag1970
a(lp2370
g269
ag269
ag269
ag269
ag69
ag7
ag7
ag7
ag7
ag7
ag7
ag7
ag7
ag7
ag7
ag269
ag69
ag7
ag7
ag69
ag269
ag269
ag269
ag269
ag269
ag269
ag269
ag269
ag269
ag269
ag269
ag269
ag269
ag269
ag269
ag269
ag269
ag269
ag269
ag269
ag269
ag269
ag269
ag269
ag269
ag269
ag269
ag269
ag269
ag269
ag269
ag269
ag269
ag269
ag269
ag269
ag269
ag269
ag269
ag269
ag269
ag269
ag269
ag269
ag269
ag269
ag269
ag269
ag269
ag269
ag269
ag269
ag269
ag269
ag269
ag269
ag269
ag269
ag269
ag269
atp2371
a((lp2372
S'301'
p2373
aI0
aI1
aI407
aI411
ag1970
a(lp2374
g269
atp2375
a((lp2376
S'34'
p2377
aI1
aI2
aI0
aI34
ag1970
a(lp2378
g269
ag269
ag269
ag269
ag269
ag269
ag69
atp2379
a((lp2380
S'36'
p2381
aI1
aI2
aI0
aI29
ag1970
a(lp2382
g269
ag269
ag269
ag269
ag269
ag269
atp2383
a((lp2384
g2381
aI1
aI2
aI68
aI237
ag1970
a(lp2385
g269
ag269
ag269
ag269
ag269
ag269
ag269
ag269
ag269
ag269
ag269
ag269
ag269
ag269
ag269
ag269
ag269
ag269
ag269
ag269
ag269
ag269
ag269
ag269
ag269
ag269
ag269
ag269
ag269
ag269
ag269
ag269
ag269
ag269
atp2386
a((lp2387
g2381
aI0
aI1
aI238
aI277
ag1970
a(lp2388
g269
ag269
ag269
ag269
ag269
ag269
ag269
ag269
atp2389
a((lp2390
S'43'
p2391
aI0
aI1
aI112
aI121
ag1970
a(lp2392
g269
ag269
atp2393
a((lp2394
S'45'
p2395
aI0
aI1
aI187
aI241
ag1970
a(lp2396
g269
ag269
ag269
ag269
ag269
ag269
ag269
ag269
ag269
ag269
ag269
atp2397
a((lp2398
S'47'
p2399
aI1
aI2
aI0
aI14
ag1970
a(lp2400
g269
ag269
ag269
atp2401
a((lp2402
g831
aI0
aI1
aI0
aI99
ag1970
a(lp2403
g269
ag269
ag269
ag269
ag269
ag269
ag269
ag269
ag269
ag269
ag269
ag269
ag269
ag269
ag269
ag269
ag269
ag269
ag269
ag269
atp2404
a((lp2405
g831
aI0
aI1
aI317
aI481
ag1970
a(lp2406
g269
ag269
ag269
ag269
ag269
ag269
ag269
ag269
ag269
ag269
ag269
ag269
ag269
ag269
ag269
ag269
ag269
ag269
ag269
ag269
ag269
ag269
ag269
ag269
ag269
ag269
ag269
ag269
ag269
ag269
ag269
ag269
ag269
atp2407
a((lp2408
S'55'
p2409
aI0
aI1
aI137
aI156
ag1970
a(lp2410
g69
ag269
ag269
ag269
atp2411
a((lp2412
g2409
aI0
aI2
aI159
aI183
ag1970
a(lp2413
g269
ag269
ag269
ag269
ag269
atp2414
a((lp2415
g2409
aI0
aI1
aI185
aI229
ag1970
a(lp2416
g269
ag269
ag269
ag269
ag269
ag269
ag269
ag269
ag269
atp2417
a((lp2418
g2409
aI0
aI2
aI230
aI239
ag1970
a(lp2419
g269
ag269
atp2420
a((lp2421
g2409
aI0
aI2
aI263
aI267
ag1970
a(lp2422
g269
atp2423
a((lp2424
g2409
aI0
aI1
aI269
aI278
ag1970
a(lp2425
g269
ag269
atp2426
a((lp2427
g2409
aI0
aI2
aI282
aI346
ag1970
a(lp2428
g269
ag269
ag269
ag269
ag269
ag269
ag269
ag269
ag269
ag269
ag269
ag269
ag269
atp2429
a((lp2430
g2409
aI0
aI1
aI397
aI416
ag1970
a(lp2431
g269
ag269
ag269
ag269
atp2432
a((lp2433
g2409
aI0
aI1
aI418
aI472
ag1970
a(lp2434
g269
ag269
ag269
ag269
ag269
ag269
ag269
ag269
ag269
ag269
ag269
atp2435
a((lp2436
S'57'
p2437
aI0
aI1
aI1680
aI1844
ag1970
a(lp2438
g269
ag269
ag269
ag269
ag269
ag269
ag269
ag269
ag269
ag269
ag269
ag269
ag269
ag269
ag269
ag269
ag269
ag269
ag269
ag269
ag269
ag269
ag269
ag269
ag269
ag269
ag269
ag269
ag269
ag269
ag269
ag269
ag269
atp2439
a((lp2440
S'61'
p2441
aI2
aI3
aI0
aI144
ag1970
a(lp2442
g269
ag269
ag269
ag269
ag269
ag269
ag269
ag269
ag269
ag269
ag269
ag269
ag269
ag274
ag274
ag274
ag274
ag269
ag269
ag269
ag269
ag269
ag269
ag269
ag269
ag269
ag269
ag269
ag269
atp2443
a((lp2444
S'64'
p2445
aI0
aI1
aI0
aI109
ag1970
a(lp2446
g269
ag269
ag269
ag269
ag269
ag269
ag269
ag269
ag269
ag269
ag269
ag269
ag269
ag269
ag269
ag269
ag269
ag269
ag269
ag269
ag269
ag269
atp2447
a((lp2448
S'66'
p2449
aI0
aI1
aI422
aI676
ag1970
a(lp2450
g269
ag269
ag269
ag269
ag269
ag269
ag269
ag269
ag269
ag269
ag269
ag269
ag269
ag269
ag269
ag269
ag269
ag269
ag269
ag269
ag269
ag269
ag269
ag269
ag269
ag269
ag269
ag269
ag269
ag269
ag269
ag269
ag269
ag269
ag269
ag269
ag269
ag269
ag269
ag269
ag269
ag269
ag269
ag269
ag269
ag269
ag269
ag269
ag269
ag269
ag269
atp2451
a((lp2452
S'79'
p2453
aI0
aI1
aI0
aI19
ag1970
a(lp2454
g269
ag269
ag269
ag269
atp2455
a((lp2456
g2453
aI0
aI1
aI84
aI113
ag1970
a(lp2457
g269
ag269
ag269
ag269
ag269
ag269
atp2458
a((lp2459
S'80'
p2460
aI0
aI1
aI68
aI87
ag1970
a(lp2461
g269
ag269
ag269
ag269
atp2462
a((lp2463
g2460
aI0
aI1
aI132
aI201
ag1970
a(lp2464
g7
ag7
ag7
ag269
ag269
ag269
ag269
ag269
ag269
ag269
ag269
ag269
ag269
ag269
atp2465
a((lp2466
S'86'
p2467
aI0
aI1
aI230
aI269
ag1970
a(lp2468
g269
ag269
ag269
ag269
ag269
ag269
ag269
ag269
atp2469
a((lp2470
g2467
aI0
aI1
aI416
aI480
ag1970
a(lp2471
g7
ag69
ag269
ag269
ag269
ag269
ag269
ag269
ag269
ag269
ag269
ag269
ag269
atp2472
a((lp2473
S'88'
p2474
aI0
aI1
aI402
aI451
ag1970
a(lp2475
g69
ag269
ag269
ag269
ag269
ag269
ag269
ag269
ag269
ag269
atp2476
a((lp2477
g1719
aI0
aI1
aI176
aI265
ag1970
a(lp2478
g269
ag274
ag274
ag274
ag269
ag269
ag269
ag269
ag269
ag269
ag269
ag269
ag269
ag269
ag269
ag269
ag269
ag269
atp2479
a((lp2480
S'92'
p2481
aI0
aI1
aI0
aI14
ag1970
a(lp2482
g269
ag269
ag269
atp2483
a((lp2484
g2481
aI0
aI1
aI117
aI166
ag1970
a(lp2485
g269
ag269
ag269
ag269
ag269
ag269
ag269
ag269
ag269
ag269
atp2486
a((lp2487
S'94'
p2488
aI0
aI1
aI83
aI137
ag1970
a(lp2489
g269
ag269
ag269
ag269
ag269
ag269
ag269
ag269
ag269
ag269
ag269
atp2490
a((lp2491
S'96'
p2492
aI0
aI1
aI121
aI155
ag1970
a(lp2493
g269
ag269
ag269
ag269
ag269
ag269
ag269
atp2494
a((lp2495
g2492
aI0
aI1
aI181
aI285
ag1970
a(lp2496
g269
ag269
ag269
ag269
ag269
ag269
ag269
ag269
ag269
ag269
ag269
ag269
ag269
ag269
ag269
ag269
ag269
ag269
ag69
ag69
ag69
atp2497
a((lp2498
g975
aI0
aI1
aI261
aI290
ag1970
a(lp2499
g269
ag269
ag269
ag269
ag269
ag269
atp2500
a((lp2501
g975
aI0
aI1
aI381
aI445
ag1970
a(lp2502
g7
ag7
ag269
ag269
ag269
ag269
ag269
ag269
ag269
ag269
ag269
ag269
ag269
atp2503
as.